SF:/private/tmp/pr17a-worktree/src/anomaly.rs
FN:111,_RNvMNtCsdYvAweMv4CD_16syslog_generator7anomalyNtB2_7Anomaly9type_name
FN:244,_RNvMs_NtCsdYvAweMv4CD_16syslog_generator7anomalyNtB4_14AnomalyPlanner11should_drop
FN:230,_RNvMs_NtCsdYvAweMv4CD_16syslog_generator7anomalyNtB4_14AnomalyPlanner24combined_rate_multiplier
FN:224,_RNvMs_NtCsdYvAweMv4CD_16syslog_generator7anomalyNtB4_14AnomalyPlanner3new
FN:134,_RNvNtCsdYvAweMv4CD_16syslog_generator7anomaly15rate_multiplier
FN:185,_RNvNtCsdYvAweMv4CD_16syslog_generator7anomaly18should_drop_packet
FN:258,_RNvNtNtCs3I23rWd8G42_16syslog_generator7anomaly5tests6approx
FN:281,_RNvNtNtCs3I23rWd8G42_16syslog_generator7anomaly5testss_20slow_drip_round_trip
FN:591,_RNvNtNtCs3I23rWd8G42_16syslog_generator7anomaly5testss_21planner_drop_or_logic
FN:308,_RNvNtNtCs3I23rWd8G42_16syslog_generator7anomaly5testss_21unknown_kind_rejected
FN:349,_RNvNtNtCs3I23rWd8G42_16syslog_generator7anomaly5testss_22burst_active_in_window
FN:301,_RNvNtNtCs3I23rWd8G42_16syslog_generator7anomaly5testss_22json_tagged_round_trip
FN:294,_RNvNtNtCs3I23rWd8G42_16syslog_generator7anomaly5testss_22packet_loss_round_trip
FN:396,_RNvNtNtCs3I23rWd8G42_16syslog_generator7anomaly5testss_23slow_drip_only_at_start
FN:265,_RNvNtNtCs3I23rWd8G42_16syslog_generator7anomaly5testss_26burst_injection_round_trip
FN:513,_RNvNtNtCs3I23rWd8G42_16syslog_generator7anomaly5testss_27non_packet_loss_never_drops
FN:437,_RNvNtNtCs3I23rWd8G42_16syslog_generator7anomaly5testss_28packet_loss_zero_never_drops
FN:492,_RNvNtNtCs3I23rWd8G42_16syslog_generator7anomaly5testss_31packet_loss_no_seed_still_drops
FN:428,_RNvNtNtCs3I23rWd8G42_16syslog_generator7anomaly5testss_32packet_loss_does_not_affect_rate
FN:445,_RNvNtNtCs3I23rWd8G42_16syslog_generator7anomaly5testss_32packet_loss_hundred_always_drops
FN:376,_RNvNtNtCs3I23rWd8G42_16syslog_generator7anomaly5testss_34burst_invalid_interval_returns_one
FN:455,_RNvNtNtCs3I23rWd8G42_16syslog_generator7anomaly5testss_34packet_loss_deterministic_for_seed
FN:574,_RNvNtNtCs3I23rWd8G42_16syslog_generator7anomaly5testss_35planner_drop_first_packet_loss_wins
FN:408,_RNvNtNtCs3I23rWd8G42_16syslog_generator7anomaly5testss_35slow_drip_zero_duration_returns_one
FN:417,_RNvNtNtCs3I23rWd8G42_16syslog_generator7anomaly5testss_36slow_drip_divisor_le_one_returns_one
FN:386,_RNvNtNtCs3I23rWd8G42_16syslog_generator7anomaly5testss_37burst_negative_multiplier_returns_one
FN:532,_RNvNtNtCs3I23rWd8G42_16syslog_generator7anomaly5testss_37planner_empty_returns_one_and_no_drop
FN:539,_RNvNtNtCs3I23rWd8G42_16syslog_generator7anomaly5testss_37planner_multiplies_active_multipliers
FN:364,_RNvNtNtCs3I23rWd8G42_16syslog_generator7anomaly5testss_38burst_with_full_coverage_always_active
FN:476,_RNvNtNtCs3I23rWd8G42_16syslog_generator7anomaly5testss_54packet_loss_different_seeds_produce_different_patterns
FN:315,_RNvNtNtCs3I23rWd8G42_16syslog_generator7anomaly5testss_9type_name
FN:111,_RNvMNtCs3I23rWd8G42_16syslog_generator7anomalyNtB2_7Anomaly9type_name
FN:244,_RNvMs_NtCs3I23rWd8G42_16syslog_generator7anomalyNtB4_14AnomalyPlanner11should_drop
FN:230,_RNvMs_NtCs3I23rWd8G42_16syslog_generator7anomalyNtB4_14AnomalyPlanner24combined_rate_multiplier
FN:224,_RNvMs_NtCs3I23rWd8G42_16syslog_generator7anomalyNtB4_14AnomalyPlanner3new
FN:134,_RNvNtCs3I23rWd8G42_16syslog_generator7anomaly15rate_multiplier
FN:185,_RNvNtCs3I23rWd8G42_16syslog_generator7anomaly18should_drop_packet
FNDA:1198,_RNvMNtCsdYvAweMv4CD_16syslog_generator7anomalyNtB2_7Anomaly9type_name
FNDA:3104,_RNvMs_NtCsdYvAweMv4CD_16syslog_generator7anomalyNtB4_14AnomalyPlanner11should_drop
FNDA:3104,_RNvMs_NtCsdYvAweMv4CD_16syslog_generator7anomalyNtB4_14AnomalyPlanner24combined_rate_multiplier
FNDA:25,_RNvMs_NtCsdYvAweMv4CD_16syslog_generator7anomalyNtB4_14AnomalyPlanner3new
FNDA:5074,_RNvNtCsdYvAweMv4CD_16syslog_generator7anomaly15rate_multiplier
FNDA:2537,_RNvNtCsdYvAweMv4CD_16syslog_generator7anomaly18should_drop_packet
FNDA:25,_RNvNtNtCs3I23rWd8G42_16syslog_generator7anomaly5tests6approx
FNDA:1,_RNvNtNtCs3I23rWd8G42_16syslog_generator7anomaly5testss_20slow_drip_round_trip
FNDA:1,_RNvNtNtCs3I23rWd8G42_16syslog_generator7anomaly5testss_21planner_drop_or_logic
FNDA:1,_RNvNtNtCs3I23rWd8G42_16syslog_generator7anomaly5testss_21unknown_kind_rejected
FNDA:1,_RNvNtNtCs3I23rWd8G42_16syslog_generator7anomaly5testss_22burst_active_in_window
FNDA:1,_RNvNtNtCs3I23rWd8G42_16syslog_generator7anomaly5testss_22json_tagged_round_trip
FNDA:1,_RNvNtNtCs3I23rWd8G42_16syslog_generator7anomaly5testss_22packet_loss_round_trip
FNDA:1,_RNvNtNtCs3I23rWd8G42_16syslog_generator7anomaly5testss_23slow_drip_only_at_start
FNDA:1,_RNvNtNtCs3I23rWd8G42_16syslog_generator7anomaly5testss_26burst_injection_round_trip
FNDA:1,_RNvNtNtCs3I23rWd8G42_16syslog_generator7anomaly5testss_27non_packet_loss_never_drops
FNDA:1,_RNvNtNtCs3I23rWd8G42_16syslog_generator7anomaly5testss_28packet_loss_zero_never_drops
FNDA:1,_RNvNtNtCs3I23rWd8G42_16syslog_generator7anomaly5testss_31packet_loss_no_seed_still_drops
FNDA:1,_RNvNtNtCs3I23rWd8G42_16syslog_generator7anomaly5testss_32packet_loss_does_not_affect_rate
FNDA:1,_RNvNtNtCs3I23rWd8G42_16syslog_generator7anomaly5testss_32packet_loss_hundred_always_drops
FNDA:1,_RNvNtNtCs3I23rWd8G42_16syslog_generator7anomaly5testss_34burst_invalid_interval_returns_one
FNDA:1,_RNvNtNtCs3I23rWd8G42_16syslog_generator7anomaly5testss_34packet_loss_deterministic_for_seed
FNDA:1,_RNvNtNtCs3I23rWd8G42_16syslog_generator7anomaly5testss_35planner_drop_first_packet_loss_wins
FNDA:1,_RNvNtNtCs3I23rWd8G42_16syslog_generator7anomaly5testss_35slow_drip_zero_duration_returns_one
FNDA:1,_RNvNtNtCs3I23rWd8G42_16syslog_generator7anomaly5testss_36slow_drip_divisor_le_one_returns_one
FNDA:1,_RNvNtNtCs3I23rWd8G42_16syslog_generator7anomaly5testss_37burst_negative_multiplier_returns_one
FNDA:1,_RNvNtNtCs3I23rWd8G42_16syslog_generator7anomaly5testss_37planner_empty_returns_one_and_no_drop
FNDA:1,_RNvNtNtCs3I23rWd8G42_16syslog_generator7anomaly5testss_37planner_multiplies_active_multipliers
FNDA:1,_RNvNtNtCs3I23rWd8G42_16syslog_generator7anomaly5testss_38burst_with_full_coverage_always_active
FNDA:1,_RNvNtNtCs3I23rWd8G42_16syslog_generator7anomaly5testss_54packet_loss_different_seeds_produce_different_patterns
FNDA:1,_RNvNtNtCs3I23rWd8G42_16syslog_generator7anomaly5testss_9type_name
FNDA:3,_RNvMNtCs3I23rWd8G42_16syslog_generator7anomalyNtB2_7Anomaly9type_name
FNDA:104,_RNvMs_NtCs3I23rWd8G42_16syslog_generator7anomalyNtB4_14AnomalyPlanner11should_drop
FNDA:8,_RNvMs_NtCs3I23rWd8G42_16syslog_generator7anomalyNtB4_14AnomalyPlanner24combined_rate_multiplier
FNDA:6,_RNvMs_NtCs3I23rWd8G42_16syslog_generator7anomalyNtB4_14AnomalyPlanner3new
FNDA:29,_RNvNtCs3I23rWd8G42_16syslog_generator7anomaly15rate_multiplier
FNDA:9751,_RNvNtCs3I23rWd8G42_16syslog_generator7anomaly18should_drop_packet
FNF:31
FNH:31
DA:111,1201
DA:112,1201
DA:113,800
DA:114,21
DA:115,380
DA:117,1201
DA:134,5103
DA:135,5103
DA:137,1870
DA:138,1870
DA:139,1870
DA:141,1870
DA:142,1
DA:143,1869
DA:144,1869
DA:145,0
DA:146,1869
DA:147,1869
DA:148,1
DA:149,1868
DA:150,1868
DA:151,1868
DA:152,1607
DA:154,261
DA:158,231
DA:159,231
DA:161,231
DA:162,1
DA:163,230
DA:164,230
DA:165,1
DA:166,229
DA:167,229
DA:168,44
DA:170,185
DA:173,3002
DA:175,5103
DA:185,12288
DA:186,12288
DA:187,11051
DA:188,0
DA:189,11051
DA:190,11051
DA:191,250
DA:192,10801
DA:193,10801
DA:194,301
DA:195,10500
DA:196,10500
DA:197,10500
DA:198,10500
DA:199,10500
DA:201,1237
DA:203,12288
DA:224,31
DA:225,31
DA:226,31
DA:230,3112
DA:231,3112
DA:232,1070
DA:233,2042
DA:234,2042
DA:235,2547
DA:236,2547
DA:237,2547
DA:238,2042
DA:239,3112
DA:244,3208
DA:245,3208
DA:246,2688
DA:247,480
DA:248,2208
DA:250,2728
DA:251,3208
DA:258,25
DA:259,25
DA:260,25
DA:265,1
DA:266,1
DA:267,1
DA:268,1
DA:276,1
DA:277,1
DA:278,1
DA:281,1
DA:282,1
DA:283,1
DA:284,1
DA:291,1
DA:294,1
DA:295,1
DA:296,1
DA:297,1
DA:298,1
DA:301,1
DA:302,1
DA:303,1
DA:304,1
DA:305,1
DA:308,1
DA:309,1
DA:310,1
DA:311,1
DA:312,1
DA:315,1
DA:316,1
DA:317,1
DA:318,1
DA:319,1
DA:320,1
DA:321,1
DA:322,1
DA:323,1
DA:324,1
DA:327,1
DA:328,1
DA:329,1
DA:330,1
DA:331,1
DA:332,1
DA:333,1
DA:334,1
DA:337,1
DA:338,1
DA:339,1
DA:340,1
DA:341,1
DA:344,1
DA:349,1
DA:350,1
DA:351,1
DA:352,1
DA:353,1
DA:354,1
DA:355,1
DA:356,1
DA:357,1
DA:358,1
DA:359,1
DA:360,1
DA:361,1
DA:364,1
DA:365,1
DA:366,1
DA:367,1
DA:368,1
DA:369,1
DA:370,1
DA:371,1
DA:372,1
DA:373,1
DA:376,1
DA:377,1
DA:378,1
DA:379,1
DA:380,1
DA:381,1
DA:382,1
DA:383,1
DA:386,1
DA:387,1
DA:388,1
DA:389,1
DA:390,1
DA:391,1
DA:392,1
DA:393,1
DA:396,1
DA:397,1
DA:398,1
DA:399,1
DA:400,1
DA:401,1
DA:402,1
DA:403,1
DA:404,1
DA:405,1
DA:408,1
DA:409,1
DA:410,1
DA:411,1
DA:412,1
DA:413,1
DA:414,1
DA:417,1
DA:420,1
DA:421,1
DA:422,1
DA:423,1
DA:424,1
DA:425,1
DA:428,1
DA:429,1
DA:430,1
DA:431,1
DA:432,1
DA:437,1
DA:438,1
DA:439,200
DA:440,200
DA:442,1
DA:445,1
DA:446,1
DA:447,1
DA:448,1
DA:449,200
DA:450,200
DA:452,1
DA:455,1
DA:456,1
DA:457,1
DA:458,1
DA:459,1000
DA:460,1000
DA:461,507
DA:462,507
DA:463,1000
DA:464,507
DA:465,507
DA:467,1
DA:469,1
DA:470,1
DA:473,1
DA:476,1
DA:477,1
DA:478,1
DA:479,1
DA:480,1000
DA:481,1000
DA:482,322
DA:483,678
DA:484,1000
DA:485,296
DA:486,704
DA:488,1
DA:489,1
DA:492,1
DA:497,1
DA:498,1
DA:499,5000
DA:500,5000
DA:501,2524
DA:502,2524
DA:506,1
DA:507,1
DA:510,1
DA:513,1
DA:514,1
DA:515,1
DA:516,1
DA:517,1
DA:518,1
DA:519,1
DA:520,1
DA:521,1
DA:522,1
DA:523,100
DA:524,100
DA:525,100
DA:527,1
DA:532,1
DA:533,1
DA:534,1
DA:535,1
DA:536,1
DA:539,1
DA:541,1
DA:542,1
DA:543,1
DA:544,1
DA:545,1
DA:546,1
DA:547,1
DA:548,1
DA:549,1
DA:550,1
DA:551,1
DA:552,1
DA:553,1
DA:554,1
DA:556,1
DA:558,1
DA:561,1
DA:564,1
DA:567,1
DA:570,1
DA:571,1
DA:574,1
DA:575,1
DA:576,1
DA:577,1
DA:578,1
DA:579,1
DA:580,1
DA:581,1
DA:582,1
DA:583,1
DA:585,1
DA:587,1
DA:588,1
DA:591,1
DA:593,1
DA:594,1
DA:595,1
DA:596,1
DA:597,1
DA:598,1
DA:599,1
DA:600,1
DA:601,1
DA:603,1
DA:604,50
DA:605,50
DA:609,1
DA:610,1
DA:611,1
DA:612,1
DA:613,1
DA:614,1
DA:615,1
DA:616,1
DA:617,1
DA:619,1
DA:620,50
DA:621,50
DA:623,1
BRF:0
BRH:0
LF:326
LH:324
end_of_record
SF:/private/tmp/pr17a-worktree/src/cli.rs
FN:208,_RNvMNtCsdYvAweMv4CD_16syslog_generator3cliNtB2_4Args12to_overrides
FN:155,_RNvNtCsdYvAweMv4CD_16syslog_generator3cli12parse_target
FN:234,_RNvNtCsdYvAweMv4CD_16syslog_generator3cli15apply_overrides
FN:166,_RNvNtCsdYvAweMv4CD_16syslog_generator3cli27parse_target_with_transport
FN:155,_RNvNtCs3I23rWd8G42_16syslog_generator3cli12parse_target
FN:234,_RNvNtCs3I23rWd8G42_16syslog_generator3cli15apply_overrides
FN:166,_RNvNtCs3I23rWd8G42_16syslog_generator3cli27parse_target_with_transport
FN:492,_RNvNtCs3I23rWd8G42_16syslog_generator3clis_41apply_overrides_no_targets_keeps_existing
FN:208,_RNvMNtCs3I23rWd8G42_16syslog_generator3cliNtB2_4Args12to_overrides
FN:307,_RNvNtNtCs3I23rWd8G42_16syslog_generator3cli5testss_16parse_target_udp
FN:300,_RNvNtNtCs3I23rWd8G42_16syslog_generator3cli5testss_22parse_target_file_path
FN:314,_RNvNtNtCs3I23rWd8G42_16syslog_generator3cli5testss_25parse_target_empty_errors
FN:474,_RNvNtNtCs3I23rWd8G42_16syslog_generator3cli5testss_27v10_7_0_dry_run_flag_parses
FN:425,_RNvNtNtCs3I23rWd8G42_16syslog_generator3cli5testss_29v10_6_0_command_enum_variants
FN:484,_RNvNtNtCs3I23rWd8G42_16syslog_generator3cli5testss_29v10_7_0_dry_run_default_false
FN:344,_RNvNtNtCs3I23rWd8G42_16syslog_generator3cli5testss_32apply_overrides_replaces_targets
FN:356,_RNvNtNtCs3I23rWd8G42_16syslog_generator3cli5testss_34apply_overrides_scalars_all_phases
FN:455,_RNvNtNtCs3I23rWd8G42_16syslog_generator3cli5testss_34v10_6_0_args_parses_man_subcommand
FN:284,_RNvNtNtCs3I23rWd8G42_16syslog_generator3cli5testss_35parse_target_addr_only_defaults_tcp
FN:389,_RNvNtNtCs3I23rWd8G42_16syslog_generator3cli5testss_37apply_overrides_message_creates_phase
FN:463,_RNvNtNtCs3I23rWd8G42_16syslog_generator3cli5testss_37v10_6_0_args_no_subcommand_means_main
FN:319,_RNvNtNtCs3I23rWd8G42_16syslog_generator3cli5testss_38b5_parse_target_with_transport_default
FN:442,_RNvNtNtCs3I23rWd8G42_16syslog_generator3cli5testss_42v10_6_0_args_parses_completions_subcommand
FN:335,_RNvNtNtCs3I23rWd8G42_16syslog_generator3cli5testss_45b5_parse_target_deprecated_with_transport_arg
FN:291,_RNvNtNtCs3I23rWd8G42_16syslog_generator3cli5testss_45parse_target_with_transport_deprecated_format
FN:327,_RNvNtNtCs3I23rWd8G42_16syslog_generator3cli5testss_48b5_parse_target_with_transport_none_defaults_tcp
FN:407,_RNvNtNtCs3I23rWd8G42_16syslog_generator3cli5testss_48v10_6_0_args_has_completions_and_man_subcommands
FN:410,_RNCNvNtNtCs3I23rWd8G42_16syslog_generator3cli5testss_48v10_6_0_args_has_completions_and_man_subcommands0B7_
FNDA:5,_RNvMNtCsdYvAweMv4CD_16syslog_generator3cliNtB2_4Args12to_overrides
FNDA:6,_RNvNtCsdYvAweMv4CD_16syslog_generator3cli12parse_target
FNDA:7,_RNvNtCsdYvAweMv4CD_16syslog_generator3cli15apply_overrides
FNDA:9,_RNvNtCsdYvAweMv4CD_16syslog_generator3cli27parse_target_with_transport
FNDA:7,_RNvNtCs3I23rWd8G42_16syslog_generator3cli12parse_target
FNDA:4,_RNvNtCs3I23rWd8G42_16syslog_generator3cli15apply_overrides
FNDA:10,_RNvNtCs3I23rWd8G42_16syslog_generator3cli27parse_target_with_transport
FNDA:1,_RNvNtCs3I23rWd8G42_16syslog_generator3clis_41apply_overrides_no_targets_keeps_existing
FNDA:0,_RNvMNtCs3I23rWd8G42_16syslog_generator3cliNtB2_4Args12to_overrides
FNDA:1,_RNvNtNtCs3I23rWd8G42_16syslog_generator3cli5testss_16parse_target_udp
FNDA:1,_RNvNtNtCs3I23rWd8G42_16syslog_generator3cli5testss_22parse_target_file_path
FNDA:1,_RNvNtNtCs3I23rWd8G42_16syslog_generator3cli5testss_25parse_target_empty_errors
FNDA:1,_RNvNtNtCs3I23rWd8G42_16syslog_generator3cli5testss_27v10_7_0_dry_run_flag_parses
FNDA:1,_RNvNtNtCs3I23rWd8G42_16syslog_generator3cli5testss_29v10_6_0_command_enum_variants
FNDA:1,_RNvNtNtCs3I23rWd8G42_16syslog_generator3cli5testss_29v10_7_0_dry_run_default_false
FNDA:1,_RNvNtNtCs3I23rWd8G42_16syslog_generator3cli5testss_32apply_overrides_replaces_targets
FNDA:1,_RNvNtNtCs3I23rWd8G42_16syslog_generator3cli5testss_34apply_overrides_scalars_all_phases
FNDA:1,_RNvNtNtCs3I23rWd8G42_16syslog_generator3cli5testss_34v10_6_0_args_parses_man_subcommand
FNDA:1,_RNvNtNtCs3I23rWd8G42_16syslog_generator3cli5testss_35parse_target_addr_only_defaults_tcp
FNDA:1,_RNvNtNtCs3I23rWd8G42_16syslog_generator3cli5testss_37apply_overrides_message_creates_phase
FNDA:1,_RNvNtNtCs3I23rWd8G42_16syslog_generator3cli5testss_37v10_6_0_args_no_subcommand_means_main
FNDA:1,_RNvNtNtCs3I23rWd8G42_16syslog_generator3cli5testss_38b5_parse_target_with_transport_default
FNDA:1,_RNvNtNtCs3I23rWd8G42_16syslog_generator3cli5testss_42v10_6_0_args_parses_completions_subcommand
FNDA:1,_RNvNtNtCs3I23rWd8G42_16syslog_generator3cli5testss_45b5_parse_target_deprecated_with_transport_arg
FNDA:1,_RNvNtNtCs3I23rWd8G42_16syslog_generator3cli5testss_45parse_target_with_transport_deprecated_format
FNDA:1,_RNvNtNtCs3I23rWd8G42_16syslog_generator3cli5testss_48b5_parse_target_with_transport_none_defaults_tcp
FNDA:1,_RNvNtNtCs3I23rWd8G42_16syslog_generator3cli5testss_48v10_6_0_args_has_completions_and_man_subcommands
FNDA:2,_RNCNvNtNtCs3I23rWd8G42_16syslog_generator3cli5testss_48v10_6_0_args_has_completions_and_man_subcommands0B7_
FNF:24
FNH:24
DA:155,13
DA:156,13
DA:157,13
DA:166,19
DA:167,19
DA:168,19
DA:169,19
DA:170,19
DA:171,19
DA:172,1
DA:173,18
DA:174,18
DA:177,18
DA:178,18
DA:179,13
DA:180,0
DA:181,13
DA:182,13
DA:187,13
DA:188,13
DA:189,13
DA:190,13
DA:191,13
DA:192,5
DA:193,0
DA:196,5
DA:197,5
DA:198,5
DA:199,5
DA:200,5
DA:201,19
DA:208,5
DA:209,5
DA:210,5
DA:211,3
DA:213,5
DA:214,5
DA:215,5
DA:216,5
DA:217,5
DA:218,5
DA:219,5
DA:220,5
DA:221,5
DA:222,5
DA:223,5
DA:224,5
DA:234,11
DA:235,11
DA:236,5
DA:237,6
DA:238,11
DA:239,0
DA:240,11
DA:241,11
DA:242,1
DA:243,10
DA:246,11
DA:247,5
DA:248,5
DA:249,5
DA:250,5
DA:251,5
DA:252,6
DA:254,0
DA:255,0
DA:256,0
DA:257,0
DA:258,6
DA:260,11
DA:261,9
DA:262,4
DA:263,5
DA:264,9
DA:265,4
DA:266,5
DA:267,9
DA:268,6
DA:269,6
DA:270,9
DA:271,3
DA:272,6
DA:273,9
DA:274,3
DA:275,6
DA:277,11
DA:284,1
DA:285,1
DA:286,1
DA:287,1
DA:288,1
DA:291,1
DA:294,1
DA:295,1
DA:296,1
DA:297,1
DA:300,1
DA:301,1
DA:302,1
DA:303,1
DA:304,1
DA:307,1
DA:308,1
DA:309,1
DA:310,1
DA:311,1
DA:314,1
DA:315,1
DA:316,1
DA:319,1
DA:321,1
DA:322,1
DA:323,1
DA:324,1
DA:327,1
DA:329,1
DA:330,1
DA:331,1
DA:332,1
DA:335,1
DA:338,1
DA:339,1
DA:340,1
DA:341,1
DA:344,1
DA:345,1
DA:346,1
DA:347,1
DA:348,1
DA:349,1
DA:350,1
DA:351,1
DA:352,1
DA:353,1
DA:356,1
DA:357,1
DA:358,1
DA:359,1
DA:360,1
DA:361,1
DA:362,1
DA:363,1
DA:364,1
DA:365,1
DA:366,1
DA:367,1
DA:368,1
DA:369,1
DA:370,1
DA:371,1
DA:372,1
DA:373,1
DA:374,1
DA:375,1
DA:376,1
DA:377,1
DA:378,1
DA:379,2
DA:380,2
DA:381,2
DA:382,2
DA:383,2
DA:384,2
DA:386,1
DA:389,1
DA:390,1
DA:391,1
DA:392,1
DA:393,1
DA:394,1
DA:395,1
DA:396,1
DA:397,1
DA:398,1
DA:399,1
DA:401,1
DA:407,1
DA:409,1
DA:410,2
DA:411,1
DA:412,1
DA:416,1
DA:417,1
DA:421,1
DA:425,1
DA:428,1
DA:429,1
DA:430,1
DA:431,1
DA:432,1
DA:433,1
DA:434,1
DA:435,1
DA:436,1
DA:437,1
DA:442,1
DA:444,1
DA:445,1
DA:446,1
DA:447,1
DA:449,0
DA:451,1
DA:455,1
DA:457,1
DA:458,1
DA:459,1
DA:463,1
DA:465,1
DA:466,1
DA:467,1
DA:468,1
DA:474,1
DA:476,1
DA:477,1
DA:479,1
DA:480,1
DA:484,1
DA:486,1
DA:487,1
DA:488,1
DA:492,1
DA:493,1
DA:494,1
DA:495,1
DA:496,1
DA:497,1
DA:498,1
DA:499,1
DA:500,1
DA:501,1
BRF:0
BRH:0
LF:231
LH:223
end_of_record
SF:/private/tmp/pr17a-worktree/src/error.rs
FN:152,_RINvMs_NtCsdYvAweMv4CD_16syslog_generator5errorNtB5_11ConfigError18unsupported_formatppEB7_
FN:131,_RINvMs_NtCsdYvAweMv4CD_16syslog_generator5errorNtB5_11ConfigError2iopEB7_
FN:138,_RINvMs_NtCsdYvAweMv4CD_16syslog_generator5errorNtB5_11ConfigError4jsonpEB7_
FN:145,_RINvMs_NtCsdYvAweMv4CD_16syslog_generator5errorNtB5_11ConfigError4yamlpEB7_
FN:92,_RINvMNtCsdYvAweMv4CD_16syslog_generator5errorNtB3_12MetricsError8registerReEB5_
FN:79,_RINvMNtCsdYvAweMv4CD_16syslog_generator5errorNtB3_12MetricsError9constructReEB5_
FN:184,_RNvMs0_NtCsdYvAweMv4CD_16syslog_generator5errorNtB5_10DrainError7timeout
FN:255,_RNvNtNtCs3I23rWd8G42_16syslog_generator5error5testss_28config_error_io_wraps_source
FN:321,_RNvNtNtCs3I23rWd8G42_16syslog_generator5error5testss_28runtime_error_cancelled_text
FN:265,_RNvNtNtCs3I23rWd8G42_16syslog_generator5error5testss_30config_error_json_wraps_source
FN:280,_RNvNtNtCs3I23rWd8G42_16syslog_generator5error5testss_30config_error_yaml_wraps_source
FN:355,_RNvNtNtCs3I23rWd8G42_16syslog_generator5error5testss_31runtime_error_display_snapshots
FN:310,_RNvNtNtCs3I23rWd8G42_16syslog_generator5error5testss_32runtime_error_from_metrics_error
FN:301,_RNvNtNtCs3I23rWd8G42_16syslog_generator5error5testss_33drain_error_timeout_includes_secs
FN:244,_RNvNtNtCs3I23rWd8G42_16syslog_generator5error5testss_34metrics_error_encode_chains_source
FN:234,_RNvNtNtCs3I23rWd8G42_16syslog_generator5error5testss_37metrics_error_register_preserves_name
FN:291,_RNvNtNtCs3I23rWd8G42_16syslog_generator5error5testss_47config_error_unsupported_format_shows_extension
FN:222,_RNvNtNtCs3I23rWd8G42_16syslog_generator5error5testss_47metrics_error_construct_preserves_name_and_kind
FN:342,_RNvNtNtCs3I23rWd8G42_16syslog_generator5error5testss_47question_mark_from_drain_error_to_runtime_error
FN:329,_RNvNtNtCs3I23rWd8G42_16syslog_generator5error5testss_49question_mark_from_metrics_error_to_runtime_error
FN:343,_RNvNvNtNtCs3I23rWd8G42_16syslog_generator5error5testss_47question_mark_from_drain_error_to_runtime_error5inner
FN:330,_RNvNvNtNtCs3I23rWd8G42_16syslog_generator5error5testss_49question_mark_from_metrics_error_to_runtime_error5inner
FN:92,_RINvMNtCs3I23rWd8G42_16syslog_generator5errorNtB3_12MetricsError8registerReEB5_
FN:79,_RINvMNtCs3I23rWd8G42_16syslog_generator5errorNtB3_12MetricsError9constructReEB5_
FN:152,_RINvMs_NtCs3I23rWd8G42_16syslog_generator5errorNtB5_11ConfigError18unsupported_formatReB1l_EB7_
FN:131,_RINvMs_NtCs3I23rWd8G42_16syslog_generator5errorNtB5_11ConfigError2ioReEB7_
FN:138,_RINvMs_NtCs3I23rWd8G42_16syslog_generator5errorNtB5_11ConfigError4jsonReEB7_
FN:145,_RINvMs_NtCs3I23rWd8G42_16syslog_generator5errorNtB5_11ConfigError4yamlReEB7_
FN:184,_RNvMs0_NtCs3I23rWd8G42_16syslog_generator5errorNtB5_10DrainError7timeout
FNDA:0,_RINvMs_NtCsdYvAweMv4CD_16syslog_generator5errorNtB5_11ConfigError18unsupported_formatppEB7_
FNDA:0,_RINvMs_NtCsdYvAweMv4CD_16syslog_generator5errorNtB5_11ConfigError2iopEB7_
FNDA:0,_RINvMs_NtCsdYvAweMv4CD_16syslog_generator5errorNtB5_11ConfigError4jsonpEB7_
FNDA:0,_RINvMs_NtCsdYvAweMv4CD_16syslog_generator5errorNtB5_11ConfigError4yamlpEB7_
FNDA:0,_RINvMNtCsdYvAweMv4CD_16syslog_generator5errorNtB3_12MetricsError8registerReEB5_
FNDA:0,_RINvMNtCsdYvAweMv4CD_16syslog_generator5errorNtB3_12MetricsError9constructReEB5_
FNDA:0,_RNvMs0_NtCsdYvAweMv4CD_16syslog_generator5errorNtB5_10DrainError7timeout
FNDA:1,_RNvNtNtCs3I23rWd8G42_16syslog_generator5error5testss_28config_error_io_wraps_source
FNDA:1,_RNvNtNtCs3I23rWd8G42_16syslog_generator5error5testss_28runtime_error_cancelled_text
FNDA:1,_RNvNtNtCs3I23rWd8G42_16syslog_generator5error5testss_30config_error_json_wraps_source
FNDA:1,_RNvNtNtCs3I23rWd8G42_16syslog_generator5error5testss_30config_error_yaml_wraps_source
FNDA:1,_RNvNtNtCs3I23rWd8G42_16syslog_generator5error5testss_31runtime_error_display_snapshots
FNDA:1,_RNvNtNtCs3I23rWd8G42_16syslog_generator5error5testss_32runtime_error_from_metrics_error
FNDA:1,_RNvNtNtCs3I23rWd8G42_16syslog_generator5error5testss_33drain_error_timeout_includes_secs
FNDA:1,_RNvNtNtCs3I23rWd8G42_16syslog_generator5error5testss_34metrics_error_encode_chains_source
FNDA:1,_RNvNtNtCs3I23rWd8G42_16syslog_generator5error5testss_37metrics_error_register_preserves_name
FNDA:1,_RNvNtNtCs3I23rWd8G42_16syslog_generator5error5testss_47config_error_unsupported_format_shows_extension
FNDA:1,_RNvNtNtCs3I23rWd8G42_16syslog_generator5error5testss_47metrics_error_construct_preserves_name_and_kind
FNDA:1,_RNvNtNtCs3I23rWd8G42_16syslog_generator5error5testss_47question_mark_from_drain_error_to_runtime_error
FNDA:1,_RNvNtNtCs3I23rWd8G42_16syslog_generator5error5testss_49question_mark_from_metrics_error_to_runtime_error
FNDA:1,_RNvNvNtNtCs3I23rWd8G42_16syslog_generator5error5testss_47question_mark_from_drain_error_to_runtime_error5inner
FNDA:1,_RNvNvNtNtCs3I23rWd8G42_16syslog_generator5error5testss_49question_mark_from_metrics_error_to_runtime_error5inner
FNDA:2,_RINvMNtCs3I23rWd8G42_16syslog_generator5errorNtB3_12MetricsError8registerReEB5_
FNDA:3,_RINvMNtCs3I23rWd8G42_16syslog_generator5errorNtB3_12MetricsError9constructReEB5_
FNDA:1,_RINvMs_NtCs3I23rWd8G42_16syslog_generator5errorNtB5_11ConfigError18unsupported_formatReB1l_EB7_
FNDA:1,_RINvMs_NtCs3I23rWd8G42_16syslog_generator5errorNtB5_11ConfigError2ioReEB7_
FNDA:1,_RINvMs_NtCs3I23rWd8G42_16syslog_generator5errorNtB5_11ConfigError4jsonReEB7_
FNDA:1,_RINvMs_NtCs3I23rWd8G42_16syslog_generator5errorNtB5_11ConfigError4yamlReEB7_
FNDA:4,_RNvMs0_NtCs3I23rWd8G42_16syslog_generator5errorNtB5_10DrainError7timeout
FNF:22
FNH:22
DA:79,3
DA:80,3
DA:81,3
DA:82,3
DA:83,3
DA:84,3
DA:85,3
DA:86,3
DA:87,3
DA:88,3
DA:89,3
DA:92,2
DA:93,2
DA:94,2
DA:95,2
DA:96,2
DA:97,2
DA:131,1
DA:132,1
DA:133,1
DA:134,1
DA:135,1
DA:136,1
DA:138,1
DA:139,1
DA:140,1
DA:141,1
DA:142,1
DA:143,1
DA:145,1
DA:146,1
DA:147,1
DA:148,1
DA:149,1
DA:150,1
DA:152,1
DA:153,1
DA:154,1
DA:155,1
DA:156,1
DA:157,1
DA:184,4
DA:185,4
DA:186,4
DA:222,1
DA:224,1
DA:225,1
DA:226,1
DA:227,1
DA:228,1
DA:229,1
DA:230,1
DA:234,1
DA:235,1
DA:236,1
DA:237,1
DA:238,1
DA:239,1
DA:240,1
DA:244,1
DA:245,1
DA:246,1
DA:249,1
DA:250,1
DA:251,1
DA:255,1
DA:256,1
DA:257,1
DA:258,1
DA:259,1
DA:260,1
DA:261,1
DA:265,1
DA:267,1
DA:269,1
DA:270,1
DA:271,1
DA:272,1
DA:273,1
DA:275,1
DA:276,1
DA:280,1
DA:282,1
DA:283,1
DA:284,1
DA:285,1
DA:286,1
DA:287,1
DA:291,1
DA:292,1
DA:293,1
DA:294,1
DA:295,1
DA:296,1
DA:297,1
DA:301,1
DA:302,1
DA:303,1
DA:304,1
DA:305,1
DA:306,1
DA:310,1
DA:311,1
DA:312,1
DA:313,1
DA:314,1
DA:315,1
DA:316,1
DA:317,1
DA:321,1
DA:322,1
DA:323,1
DA:324,1
DA:329,1
DA:330,1
DA:331,1
DA:332,1
DA:333,1
DA:334,1
DA:335,1
DA:336,1
DA:337,1
DA:338,1
DA:342,1
DA:343,1
DA:344,1
DA:345,1
DA:346,1
DA:347,1
DA:348,1
DA:349,1
DA:350,1
DA:355,1
DA:356,1
DA:357,1
DA:360,1
DA:361,1
DA:362,1
DA:363,1
DA:364,1
BRF:0
BRH:0
LF:140
LH:140
end_of_record
SF:/private/tmp/pr17a-worktree/src/format/cef.rs
FN:113,_RNvNtNtCsdYvAweMv4CD_16syslog_generator6format3cef15push_u8_decimalB5_
FN:130,_RNvNtNtCsdYvAweMv4CD_16syslog_generator6format3cef18escape_header_intoB5_
FN:107,_RNvNtNtCsdYvAweMv4CD_16syslog_generator6format3cef20extensions_has_pairsB5_
FN:152,_RNvNtNtCsdYvAweMv4CD_16syslog_generator6format3cef27escape_extension_value_intoB5_
FN:36,_RNvNtNtCsdYvAweMv4CD_16syslog_generator6format3cef5buildB5_
FN:48,_RNCNvNtNtCsdYvAweMv4CD_16syslog_generator6format3cef5build0B7_
FN:49,_RNCNvNtNtCsdYvAweMv4CD_16syslog_generator6format3cef5builds_0B7_
FN:176,_RNvNtNtNtCs3I23rWd8G42_16syslog_generator6format3cef5tests3cfg
FN:189,_RNvNtNtNtCs3I23rWd8G42_16syslog_generator6format3cef5testss_18builds_minimal_cef
FN:196,_RNvNtNtNtCs3I23rWd8G42_16syslog_generator6format3cef5testss_29escapes_pipe_in_header_fields
FN:238,_RNvNtNtNtCs3I23rWd8G42_16syslog_generator6format3cef5testss_33handles_invalid_utf8_msg_as_empty
FN:245,_RNvNtNtNtCs3I23rWd8G42_16syslog_generator6format3cef5testss_34default_severity_is_zero_when_none
FN:207,_RNvNtNtNtCs3I23rWd8G42_16syslog_generator6format3cef5testss_34escapes_backslash_in_header_fields
FN:216,_RNvNtNtNtCs3I23rWd8G42_16syslog_generator6format3cef5testss_36escapes_specials_in_extension_values
FN:254,_RNvNtNtNtCs3I23rWd8G42_16syslog_generator6format3cef5testss_40extensions_sorted_by_key_for_determinism
FN:231,_RNvNtNtNtCs3I23rWd8G42_16syslog_generator6format3cef5testss_49includes_msg_extension_even_with_empty_extensions
FN:113,_RNvNtNtCs3I23rWd8G42_16syslog_generator6format3cef15push_u8_decimalB5_
FN:130,_RNvNtNtCs3I23rWd8G42_16syslog_generator6format3cef18escape_header_intoB5_
FN:107,_RNvNtNtCs3I23rWd8G42_16syslog_generator6format3cef20extensions_has_pairsB5_
FN:152,_RNvNtNtCs3I23rWd8G42_16syslog_generator6format3cef27escape_extension_value_intoB5_
FN:36,_RNvNtNtCs3I23rWd8G42_16syslog_generator6format3cef5buildB5_
FN:48,_RNCNvNtNtCs3I23rWd8G42_16syslog_generator6format3cef5build0B7_
FN:49,_RNCNvNtNtCs3I23rWd8G42_16syslog_generator6format3cef5builds_0B7_
FNDA:2,_RNvNtNtCsdYvAweMv4CD_16syslog_generator6format3cef15push_u8_decimalB5_
FNDA:10,_RNvNtNtCsdYvAweMv4CD_16syslog_generator6format3cef18escape_header_intoB5_
FNDA:2,_RNvNtNtCsdYvAweMv4CD_16syslog_generator6format3cef20extensions_has_pairsB5_
FNDA:4,_RNvNtNtCsdYvAweMv4CD_16syslog_generator6format3cef27escape_extension_value_intoB5_
FNDA:2,_RNvNtNtCsdYvAweMv4CD_16syslog_generator6format3cef5buildB5_
FNDA:2,_RNCNvNtNtCsdYvAweMv4CD_16syslog_generator6format3cef5build0B7_
FNDA:2,_RNCNvNtNtCsdYvAweMv4CD_16syslog_generator6format3cef5builds_0B7_
FNDA:8,_RNvNtNtNtCs3I23rWd8G42_16syslog_generator6format3cef5tests3cfg
FNDA:1,_RNvNtNtNtCs3I23rWd8G42_16syslog_generator6format3cef5testss_18builds_minimal_cef
FNDA:1,_RNvNtNtNtCs3I23rWd8G42_16syslog_generator6format3cef5testss_29escapes_pipe_in_header_fields
FNDA:1,_RNvNtNtNtCs3I23rWd8G42_16syslog_generator6format3cef5testss_33handles_invalid_utf8_msg_as_empty
FNDA:1,_RNvNtNtNtCs3I23rWd8G42_16syslog_generator6format3cef5testss_34default_severity_is_zero_when_none
FNDA:1,_RNvNtNtNtCs3I23rWd8G42_16syslog_generator6format3cef5testss_34escapes_backslash_in_header_fields
FNDA:1,_RNvNtNtNtCs3I23rWd8G42_16syslog_generator6format3cef5testss_36escapes_specials_in_extension_values
FNDA:1,_RNvNtNtNtCs3I23rWd8G42_16syslog_generator6format3cef5testss_40extensions_sorted_by_key_for_determinism
FNDA:1,_RNvNtNtNtCs3I23rWd8G42_16syslog_generator6format3cef5testss_49includes_msg_extension_even_with_empty_extensions
FNDA:9,_RNvNtNtCs3I23rWd8G42_16syslog_generator6format3cef15push_u8_decimalB5_
FNDA:45,_RNvNtNtCs3I23rWd8G42_16syslog_generator6format3cef18escape_header_intoB5_
FNDA:9,_RNvNtNtCs3I23rWd8G42_16syslog_generator6format3cef20extensions_has_pairsB5_
FNDA:15,_RNvNtNtCs3I23rWd8G42_16syslog_generator6format3cef27escape_extension_value_intoB5_
FNDA:9,_RNvNtNtCs3I23rWd8G42_16syslog_generator6format3cef5buildB5_
FNDA:6,_RNCNvNtNtCs3I23rWd8G42_16syslog_generator6format3cef5build0B7_
FNDA:6,_RNCNvNtNtCs3I23rWd8G42_16syslog_generator6format3cef5builds_0B7_
FNF:16
FNH:16
DA:36,11
DA:37,11
DA:40,11
DA:41,11
DA:42,11
DA:43,11
DA:44,11
DA:45,11
DA:46,3
DA:47,3
DA:48,8
DA:49,8
DA:51,8
DA:53,11
DA:56,11
DA:57,11
DA:58,11
DA:59,11
DA:60,11
DA:61,11
DA:62,11
DA:63,11
DA:64,11
DA:65,11
DA:67,11
DA:70,11
DA:71,11
DA:72,11
DA:73,11
DA:74,11
DA:75,11
DA:76,11
DA:77,11
DA:78,11
DA:79,11
DA:80,11
DA:81,11
DA:82,11
DA:85,11
DA:86,8
DA:87,8
DA:88,5
DA:89,5
DA:90,8
DA:91,8
DA:92,8
DA:94,8
DA:96,11
DA:97,3
DA:98,8
DA:99,11
DA:100,11
DA:102,11
DA:103,11
DA:107,11
DA:108,8
DA:109,11
DA:113,11
DA:114,11
DA:115,0
DA:116,0
DA:117,0
DA:118,11
DA:119,11
DA:120,0
DA:121,0
DA:122,0
DA:123,11
DA:124,11
DA:125,11
DA:130,55
DA:131,284
DA:132,284
DA:133,1
DA:134,1
DA:135,1
DA:136,1
DA:137,2
DA:138,2
DA:139,2
DA:140,2
DA:141,281
DA:144,55
DA:152,19
DA:153,99
DA:154,99
DA:155,1
DA:156,1
DA:157,1
DA:158,1
DA:159,1
DA:160,1
DA:161,1
DA:162,1
DA:163,2
DA:164,2
DA:165,2
DA:166,2
DA:167,95
DA:170,19
DA:176,8
DA:177,8
DA:178,8
DA:179,8
DA:180,8
DA:181,8
DA:182,8
DA:183,8
DA:184,8
DA:185,8
DA:186,8
DA:189,1
DA:190,1
DA:191,1
DA:192,1
DA:193,1
DA:196,1
DA:197,1
DA:198,1
DA:199,1
DA:200,1
DA:201,1
DA:202,1
DA:203,1
DA:204,1
DA:207,1
DA:208,1
DA:209,1
DA:210,1
DA:211,1
DA:212,1
DA:213,1
DA:216,1
DA:217,1
DA:218,1
DA:219,1
DA:220,1
DA:221,1
DA:222,1
DA:223,1
DA:224,1
DA:225,1
DA:226,1
DA:227,1
DA:228,1
DA:231,1
DA:232,1
DA:233,1
DA:234,1
DA:235,1
DA:238,1
DA:239,1
DA:240,1
DA:241,1
DA:242,1
DA:245,1
DA:246,1
DA:247,1
DA:248,1
DA:249,1
DA:250,1
DA:251,1
DA:254,1
DA:255,1
DA:256,1
DA:257,1
DA:258,1
DA:259,1
DA:260,1
DA:261,1
DA:262,1
DA:263,1
DA:264,1
DA:265,1
DA:266,1
DA:267,1
BRF:0
BRH:0
LF:178
LH:172
end_of_record
SF:/private/tmp/pr17a-worktree/src/format/json_lines.rs
FN:38,_RNvNtNtCsdYvAweMv4CD_16syslog_generator6format10json_lines17severity_to_levelB5_
FN:58,_RNvNtNtCsdYvAweMv4CD_16syslog_generator6format10json_lines23escape_json_string_intoB5_
FN:105,_RNvNtNtCsdYvAweMv4CD_16syslog_generator6format10json_lines5build
FN:173,_RNvNtNtNtCs3I23rWd8G42_16syslog_generator6format10json_lines5tests3hdr
FN:300,_RNvNtNtNtCs3I23rWd8G42_16syslog_generator6format10json_lines5testss_20result_is_valid_json
FN:212,_RNvNtNtNtCs3I23rWd8G42_16syslog_generator6format10json_lines5testss_23severity_maps_correctly
FN:235,_RNvNtNtNtCs3I23rWd8G42_16syslog_generator6format10json_lines5testss_24severity_clamped_above_7
FN:188,_RNvNtNtNtCs3I23rWd8G42_16syslog_generator6format10json_lines5testss_25builds_minimal_json_lines
FN:246,_RNvNtNtNtCs3I23rWd8G42_16syslog_generator6format10json_lines5testss_26extra_fields_added_to_root
FN:206,_RNvNtNtNtCs3I23rWd8G42_16syslog_generator6format10json_lines5testss_27trailing_newline_is_present
FN:267,_RNvNtNtNtCs3I23rWd8G42_16syslog_generator6format10json_lines5testss_28json_escapes_specials_in_msg
FN:288,_RNvNtNtNtCs3I23rWd8G42_16syslog_generator6format10json_lines5testss_29nilvalue_procid_msgid_omitted
FN:257,_RNvNtNtNtCs3I23rWd8G42_16syslog_generator6format10json_lines5testss_34user_extra_overrides_autogenerated
FN:279,_RNvNtNtNtCs3I23rWd8G42_16syslog_generator6format10json_lines5testss_47invalid_utf8_msg_replaced_with_replacement_char
FN:38,_RNvNtNtCs3I23rWd8G42_16syslog_generator6format10json_lines17severity_to_levelB5_
FN:58,_RNvNtNtCs3I23rWd8G42_16syslog_generator6format10json_lines23escape_json_string_intoB5_
FN:105,_RNvNtNtCs3I23rWd8G42_16syslog_generator6format10json_lines5build
FNDA:1,_RNvNtNtCsdYvAweMv4CD_16syslog_generator6format10json_lines17severity_to_levelB5_
FNDA:14,_RNvNtNtCsdYvAweMv4CD_16syslog_generator6format10json_lines23escape_json_string_intoB5_
FNDA:1,_RNvNtNtCsdYvAweMv4CD_16syslog_generator6format10json_lines5build
FNDA:17,_RNvNtNtNtCs3I23rWd8G42_16syslog_generator6format10json_lines5tests3hdr
FNDA:1,_RNvNtNtNtCs3I23rWd8G42_16syslog_generator6format10json_lines5testss_20result_is_valid_json
FNDA:1,_RNvNtNtNtCs3I23rWd8G42_16syslog_generator6format10json_lines5testss_23severity_maps_correctly
FNDA:1,_RNvNtNtNtCs3I23rWd8G42_16syslog_generator6format10json_lines5testss_24severity_clamped_above_7
FNDA:1,_RNvNtNtNtCs3I23rWd8G42_16syslog_generator6format10json_lines5testss_25builds_minimal_json_lines
FNDA:1,_RNvNtNtNtCs3I23rWd8G42_16syslog_generator6format10json_lines5testss_26extra_fields_added_to_root
FNDA:1,_RNvNtNtNtCs3I23rWd8G42_16syslog_generator6format10json_lines5testss_27trailing_newline_is_present
FNDA:1,_RNvNtNtNtCs3I23rWd8G42_16syslog_generator6format10json_lines5testss_28json_escapes_specials_in_msg
FNDA:1,_RNvNtNtNtCs3I23rWd8G42_16syslog_generator6format10json_lines5testss_29nilvalue_procid_msgid_omitted
FNDA:1,_RNvNtNtNtCs3I23rWd8G42_16syslog_generator6format10json_lines5testss_34user_extra_overrides_autogenerated
FNDA:1,_RNvNtNtNtCs3I23rWd8G42_16syslog_generator6format10json_lines5testss_47invalid_utf8_msg_replaced_with_replacement_char
FNDA:18,_RNvNtNtCs3I23rWd8G42_16syslog_generator6format10json_lines17severity_to_levelB5_
FNDA:290,_RNvNtNtCs3I23rWd8G42_16syslog_generator6format10json_lines23escape_json_string_intoB5_
FNDA:18,_RNvNtNtCs3I23rWd8G42_16syslog_generator6format10json_lines5build
FNF:14
FNH:14
DA:38,19
DA:39,19
DA:40,1
DA:41,1
DA:42,1
DA:43,1
DA:44,1
DA:45,1
DA:46,11
DA:47,2
DA:48,0
DA:50,19
DA:58,304
DA:59,304
DA:60,304
DA:61,1657
DA:62,1657
DA:63,1
DA:64,1
DA:65,0
DA:66,0
DA:67,1
DA:68,0
DA:69,0
DA:71,1654
DA:72,0
DA:74,1654
DA:78,3
DA:79,3
DA:80,3
DA:81,3
DA:82,3
DA:84,0
DA:85,0
DA:87,0
DA:88,0
DA:91,3
DA:93,304
DA:94,292
DA:95,292
DA:96,304
DA:97,304
DA:105,19
DA:106,19
DA:107,19
DA:108,19
DA:109,19
DA:112,19
DA:114,19
DA:115,19
DA:117,0
DA:119,19
DA:120,19
DA:121,19
DA:122,19
DA:124,19
DA:125,19
DA:126,19
DA:129,19
DA:130,19
DA:131,19
DA:132,17
DA:133,17
DA:134,19
DA:135,17
DA:136,17
DA:138,19
DA:139,19
DA:143,19
DA:144,5
DA:145,5
DA:146,5
DA:147,15
DA:152,19
DA:153,19
DA:154,19
DA:155,152
DA:156,152
DA:157,133
DA:158,133
DA:159,152
DA:160,152
DA:161,152
DA:162,152
DA:164,19
DA:165,19
DA:166,19
DA:167,19
DA:173,17
DA:174,17
DA:175,17
DA:176,17
DA:177,17
DA:178,17
DA:179,17
DA:180,17
DA:181,17
DA:182,17
DA:183,17
DA:184,17
DA:185,17
DA:188,1
DA:189,1
DA:190,1
DA:193,1
DA:194,1
DA:195,1
DA:196,1
DA:197,1
DA:198,1
DA:199,1
DA:200,1
DA:202,1
DA:203,1
DA:206,1
DA:207,1
DA:208,1
DA:209,1
DA:212,1
DA:213,8
DA:214,1
DA:215,1
DA:216,1
DA:217,1
DA:218,1
DA:219,1
DA:220,1
DA:221,1
DA:222,1
DA:223,8
DA:224,8
DA:225,8
DA:226,8
DA:227,8
DA:228,8
DA:232,1
DA:235,1
DA:237,1
DA:238,1
DA:239,1
DA:240,1
DA:242,1
DA:243,1
DA:246,1
DA:247,1
DA:248,1
DA:249,1
DA:250,1
DA:251,1
DA:252,1
DA:253,1
DA:254,1
DA:257,1
DA:258,1
DA:259,1
DA:260,1
DA:261,1
DA:262,1
DA:263,1
DA:264,1
DA:267,1
DA:270,1
DA:271,1
DA:275,1
DA:276,1
DA:279,1
DA:280,1
DA:281,1
DA:284,1
DA:285,1
DA:288,1
DA:289,1
DA:290,1
DA:291,1
DA:292,1
DA:293,1
DA:295,1
DA:296,1
DA:297,1
DA:300,1
DA:301,1
DA:303,1
DA:304,1
DA:305,1
DA:306,1
DA:307,1
DA:308,1
BRF:0
BRH:0
LF:187
LH:176
end_of_record
SF:/private/tmp/pr17a-worktree/src/format/leef.rs
FN:67,_RNvNtNtCsdYvAweMv4CD_16syslog_generator6format4leef13escape_header
FN:87,_RNvNtNtCsdYvAweMv4CD_16syslog_generator6format4leef17escape_attr_value
FN:29,_RNvNtNtCsdYvAweMv4CD_16syslog_generator6format4leef5build
FN:117,_RNvNtNtNtCs3I23rWd8G42_16syslog_generator6format4leef5tests3cfg
FN:128,_RNvNtNtNtCs3I23rWd8G42_16syslog_generator6format4leef5testss_19builds_minimal_leef
FN:135,_RNvNtNtNtCs3I23rWd8G42_16syslog_generator6format4leef5testss_29escapes_pipe_in_header_fields
FN:192,_RNvNtNtNtCs3I23rWd8G42_16syslog_generator6format4leef5testss_33attributes_sorted_for_determinism
FN:146,_RNvNtNtNtCs3I23rWd8G42_16syslog_generator6format4leef5testss_34escapes_backslash_in_header_fields
FN:155,_RNvNtNtNtCs3I23rWd8G42_16syslog_generator6format4leef5testss_36escapes_specials_in_attribute_values
FN:186,_RNvNtNtNtCs3I23rWd8G42_16syslog_generator6format4leef5testss_37message_trailing_newline_is_mandatory
FN:174,_RNvNtNtNtCs3I23rWd8G42_16syslog_generator6format4leef5testss_43escapes_tab_and_newline_in_attribute_values
FN:67,_RNvNtNtCs3I23rWd8G42_16syslog_generator6format4leef13escape_header
FN:87,_RNvNtNtCs3I23rWd8G42_16syslog_generator6format4leef17escape_attr_value
FN:29,_RNvNtNtCs3I23rWd8G42_16syslog_generator6format4leef5build
FNDA:4,_RNvNtNtCsdYvAweMv4CD_16syslog_generator6format4leef13escape_header
FNDA:1,_RNvNtNtCsdYvAweMv4CD_16syslog_generator6format4leef17escape_attr_value
FNDA:1,_RNvNtNtCsdYvAweMv4CD_16syslog_generator6format4leef5build
FNDA:7,_RNvNtNtNtCs3I23rWd8G42_16syslog_generator6format4leef5tests3cfg
FNDA:1,_RNvNtNtNtCs3I23rWd8G42_16syslog_generator6format4leef5testss_19builds_minimal_leef
FNDA:1,_RNvNtNtNtCs3I23rWd8G42_16syslog_generator6format4leef5testss_29escapes_pipe_in_header_fields
FNDA:1,_RNvNtNtNtCs3I23rWd8G42_16syslog_generator6format4leef5testss_33attributes_sorted_for_determinism
FNDA:1,_RNvNtNtNtCs3I23rWd8G42_16syslog_generator6format4leef5testss_34escapes_backslash_in_header_fields
FNDA:1,_RNvNtNtNtCs3I23rWd8G42_16syslog_generator6format4leef5testss_36escapes_specials_in_attribute_values
FNDA:1,_RNvNtNtNtCs3I23rWd8G42_16syslog_generator6format4leef5testss_37message_trailing_newline_is_mandatory
FNDA:1,_RNvNtNtNtCs3I23rWd8G42_16syslog_generator6format4leef5testss_43escapes_tab_and_newline_in_attribute_values
FNDA:32,_RNvNtNtCs3I23rWd8G42_16syslog_generator6format4leef13escape_header
FNDA:15,_RNvNtNtCs3I23rWd8G42_16syslog_generator6format4leef17escape_attr_value
FNDA:8,_RNvNtNtCs3I23rWd8G42_16syslog_generator6format4leef5build
FNF:11
FNH:11
DA:29,9
DA:30,9
DA:32,9
DA:33,9
DA:34,9
DA:35,9
DA:39,9
DA:40,9
DA:41,7
DA:42,7
DA:43,4
DA:44,4
DA:45,7
DA:46,7
DA:47,7
DA:49,6
DA:51,9
DA:52,3
DA:53,6
DA:54,9
DA:55,9
DA:58,9
DA:59,9
DA:60,9
DA:61,9
DA:62,9
DA:63,9
DA:64,9
DA:67,36
DA:68,36
DA:69,196
DA:70,196
DA:71,1
DA:72,1
DA:73,1
DA:74,1
DA:75,2
DA:76,2
DA:77,2
DA:78,2
DA:79,193
DA:82,36
DA:83,36
DA:87,16
DA:88,16
DA:89,80
DA:90,80
DA:91,1
DA:92,1
DA:93,1
DA:94,1
DA:95,1
DA:96,1
DA:97,1
DA:98,1
DA:99,1
DA:100,1
DA:101,1
DA:102,1
DA:103,1
DA:104,1
DA:105,1
DA:106,1
DA:107,76
DA:110,16
DA:111,16
DA:117,7
DA:118,7
DA:119,7
DA:120,7
DA:121,7
DA:122,7
DA:123,7
DA:124,7
DA:125,7
DA:128,1
DA:129,1
DA:130,1
DA:131,1
DA:132,1
DA:135,1
DA:136,1
DA:137,1
DA:138,1
DA:139,1
DA:140,1
DA:141,1
DA:142,1
DA:143,1
DA:146,1
DA:147,1
DA:148,1
DA:149,1
DA:150,1
DA:151,1
DA:152,1
DA:155,1
DA:156,1
DA:157,1
DA:158,1
DA:159,1
DA:160,1
DA:161,1
DA:162,1
DA:163,1
DA:165,1
DA:166,1
DA:168,1
DA:170,1
DA:171,1
DA:174,1
DA:175,1
DA:176,1
DA:177,1
DA:178,1
DA:179,1
DA:180,1
DA:182,1
DA:183,1
DA:186,1
DA:187,1
DA:188,1
DA:189,1
DA:192,1
DA:193,1
DA:194,1
DA:195,1
DA:196,1
DA:197,1
DA:198,1
DA:199,1
DA:200,1
DA:201,1
DA:202,1
DA:203,1
DA:204,1
DA:205,1
BRF:0
BRH:0
LF:137
LH:137
end_of_record
SF:/private/tmp/pr17a-worktree/src/format/mod.rs
FN:93,_RNvNtCsdYvAweMv4CD_16syslog_generator6format17rfc5424_timestamp
FN:101,_RNvNtCsdYvAweMv4CD_16syslog_generator6format20rfc5424_timestamp_at
FN:78,_RNCNvNtCsdYvAweMv4CD_16syslog_generator6format15sanitize_header0B5_
FN:211,_RNCNvXNtCsdYvAweMv4CD_16syslog_generator6formatNtB4_10FormatKindNtB4_6Format6render0B6_
FN:255,_RNvMs0_NtCsdYvAweMv4CD_16syslog_generator6formatNtB5_10FormatKind5parse
FN:279,_RNvNtCsdYvAweMv4CD_16syslog_generator6format13build_rfc3164
FN:275,_RNvNtCsdYvAweMv4CD_16syslog_generator6format13build_rfc5424
FN:107,_RNvNtCsdYvAweMv4CD_16syslog_generator6format15escape_sd_value
FN:283,_RNvNtCsdYvAweMv4CD_16syslog_generator6format9build_raw
FN:195,_RNvXNtCsdYvAweMv4CD_16syslog_generator6formatNtB2_10FormatKindNtB2_6Format6render
FN:238,_RNvXs_NtCsdYvAweMv4CD_16syslog_generator6formatNtB4_10FormatKindNtNtCsl8K0bEFm1U0_4core3fmt7Display3fmt
FN:72,_RNvNtCsdYvAweMv4CD_16syslog_generator6format15sanitize_header
FN:60,_RNvNtCsdYvAweMv4CD_16syslog_generator6format6prival
FN:78,_RNCNvNtCs3I23rWd8G42_16syslog_generator6format15sanitize_header0B5_
FN:211,_RNCNvXNtCs3I23rWd8G42_16syslog_generator6formatNtB4_10FormatKindNtB4_6Format6render0B6_
FN:60,_RNvNtCs3I23rWd8G42_16syslog_generator6format6prival
FN:398,_RNvNtNtCs3I23rWd8G42_16syslog_generator6format5tests9hdr_basic
FN:361,_RNvNtNtCs3I23rWd8G42_16syslog_generator6format5testss_19n10_formatkind_name
FN:373,_RNvNtNtCs3I23rWd8G42_16syslog_generator6format5testss_20n10_formatkind_parse
FN:297,_RNvNtNtCs3I23rWd8G42_16syslog_generator6format5testss_22prival_formula_correct
FN:451,_RNvNtNtCs3I23rWd8G42_16syslog_generator6format5testss_31phase6_build_raw_is_passthrough
FN:337,_RNvNtNtCs3I23rWd8G42_16syslog_generator6format5testss_33n10_formatkind_raw_is_passthrough
FN:311,_RNvNtNtCs3I23rWd8G42_16syslog_generator6format5testss_36n10_formatkind_rfc5424_renders_valid
FN:415,_RNvNtNtCs3I23rWd8G42_16syslog_generator6format5testss_36phase6_escape_sd_value_special_chars
FN:441,_RNvNtNtCs3I23rWd8G42_16syslog_generator6format5testss_41phase6_build_rfc3164_helper_matches_inner
FN:429,_RNvNtNtCs3I23rWd8G42_16syslog_generator6format5testss_41phase6_build_rfc5424_helper_matches_inner
FN:595,_RNvNtNtCs3I23rWd8G42_16syslog_generator6format5testss_41phase6_formatkind_json_lines_renders_json
FN:462,_RNvNtNtCs3I23rWd8G42_16syslog_generator6format5testss_45phase6_formatkind_protobuf_none_renders_empty
FN:505,_RNvNtNtCs3I23rWd8G42_16syslog_generator6format5testss_48phase6_formatkind_cef_none_ctx_falls_back_to_raw
FN:521,_RNvNtNtCs3I23rWd8G42_16syslog_generator6format5testss_49phase6_formatkind_cef_some_ctx_renders_cef_format
FN:551,_RNvNtNtCs3I23rWd8G42_16syslog_generator6format5testss_49phase6_formatkind_leef_none_ctx_falls_back_to_raw
FN:567,_RNvNtNtCs3I23rWd8G42_16syslog_generator6format5testss_51phase6_formatkind_leef_some_ctx_renders_leef_format
FN:478,_RNvNtNtCs3I23rWd8G42_16syslog_generator6format5testss_51phase6_formatkind_protobuf_some_renders_wire_format
FN:101,_RNvNtCs3I23rWd8G42_16syslog_generator6format20rfc5424_timestamp_at
FN:255,_RNvMs0_NtCs3I23rWd8G42_16syslog_generator6formatNtB5_10FormatKind5parse
FN:279,_RNvNtCs3I23rWd8G42_16syslog_generator6format13build_rfc3164
FN:275,_RNvNtCs3I23rWd8G42_16syslog_generator6format13build_rfc5424
FN:107,_RNvNtCs3I23rWd8G42_16syslog_generator6format15escape_sd_value
FN:283,_RNvNtCs3I23rWd8G42_16syslog_generator6format9build_raw
FN:195,_RNvXNtCs3I23rWd8G42_16syslog_generator6formatNtB2_10FormatKindNtB2_6Format6render
FN:238,_RNvXs_NtCs3I23rWd8G42_16syslog_generator6formatNtB4_10FormatKindNtNtCsl8K0bEFm1U0_4core3fmt7Display3fmt
FN:72,_RNvNtCs3I23rWd8G42_16syslog_generator6format15sanitize_header
FN:93,_RNvNtCs3I23rWd8G42_16syslog_generator6format17rfc5424_timestamp
FNDA:5,_RNvNtCsdYvAweMv4CD_16syslog_generator6format17rfc5424_timestamp
FNDA:3109,_RNvNtCsdYvAweMv4CD_16syslog_generator6format20rfc5424_timestamp_at
FNDA:11231,_RNCNvNtCsdYvAweMv4CD_16syslog_generator6format15sanitize_header0B5_
FNDA:0,_RNCNvXNtCsdYvAweMv4CD_16syslog_generator6formatNtB4_10FormatKindNtB4_6Format6render0B6_
FNDA:3571,_RNvMs0_NtCsdYvAweMv4CD_16syslog_generator6formatNtB5_10FormatKind5parse
FNDA:0,_RNvNtCsdYvAweMv4CD_16syslog_generator6format13build_rfc3164
FNDA:0,_RNvNtCsdYvAweMv4CD_16syslog_generator6format13build_rfc5424
FNDA:0,_RNvNtCsdYvAweMv4CD_16syslog_generator6format15escape_sd_value
FNDA:0,_RNvNtCsdYvAweMv4CD_16syslog_generator6format9build_raw
FNDA:6650,_RNvXNtCsdYvAweMv4CD_16syslog_generator6formatNtB2_10FormatKindNtB2_6Format6render
FNDA:0,_RNvXs_NtCsdYvAweMv4CD_16syslog_generator6formatNtB4_10FormatKindNtNtCsl8K0bEFm1U0_4core3fmt7Display3fmt
FNDA:1607,_RNvNtCsdYvAweMv4CD_16syslog_generator6format15sanitize_header
FNDA:402,_RNvNtCsdYvAweMv4CD_16syslog_generator6format6prival
FNDA:347,_RNCNvNtCs3I23rWd8G42_16syslog_generator6format15sanitize_header0B5_
FNDA:8,_RNCNvXNtCs3I23rWd8G42_16syslog_generator6formatNtB4_10FormatKindNtB4_6Format6render0B6_
FNDA:29,_RNvNtCs3I23rWd8G42_16syslog_generator6format6prival
FNDA:10,_RNvNtNtCs3I23rWd8G42_16syslog_generator6format5tests9hdr_basic
FNDA:1,_RNvNtNtCs3I23rWd8G42_16syslog_generator6format5testss_19n10_formatkind_name
FNDA:1,_RNvNtNtCs3I23rWd8G42_16syslog_generator6format5testss_20n10_formatkind_parse
FNDA:1,_RNvNtNtCs3I23rWd8G42_16syslog_generator6format5testss_22prival_formula_correct
FNDA:1,_RNvNtNtCs3I23rWd8G42_16syslog_generator6format5testss_31phase6_build_raw_is_passthrough
FNDA:1,_RNvNtNtCs3I23rWd8G42_16syslog_generator6format5testss_33n10_formatkind_raw_is_passthrough
FNDA:1,_RNvNtNtCs3I23rWd8G42_16syslog_generator6format5testss_36n10_formatkind_rfc5424_renders_valid
FNDA:1,_RNvNtNtCs3I23rWd8G42_16syslog_generator6format5testss_36phase6_escape_sd_value_special_chars
FNDA:1,_RNvNtNtCs3I23rWd8G42_16syslog_generator6format5testss_41phase6_build_rfc3164_helper_matches_inner
FNDA:1,_RNvNtNtCs3I23rWd8G42_16syslog_generator6format5testss_41phase6_build_rfc5424_helper_matches_inner
FNDA:1,_RNvNtNtCs3I23rWd8G42_16syslog_generator6format5testss_41phase6_formatkind_json_lines_renders_json
FNDA:1,_RNvNtNtCs3I23rWd8G42_16syslog_generator6format5testss_45phase6_formatkind_protobuf_none_renders_empty
FNDA:1,_RNvNtNtCs3I23rWd8G42_16syslog_generator6format5testss_48phase6_formatkind_cef_none_ctx_falls_back_to_raw
FNDA:1,_RNvNtNtCs3I23rWd8G42_16syslog_generator6format5testss_49phase6_formatkind_cef_some_ctx_renders_cef_format
FNDA:1,_RNvNtNtCs3I23rWd8G42_16syslog_generator6format5testss_49phase6_formatkind_leef_none_ctx_falls_back_to_raw
FNDA:1,_RNvNtNtCs3I23rWd8G42_16syslog_generator6format5testss_51phase6_formatkind_leef_some_ctx_renders_leef_format
FNDA:1,_RNvNtNtCs3I23rWd8G42_16syslog_generator6format5testss_51phase6_formatkind_protobuf_some_renders_wire_format
FNDA:33,_RNvNtCs3I23rWd8G42_16syslog_generator6format20rfc5424_timestamp_at
FNDA:13,_RNvMs0_NtCs3I23rWd8G42_16syslog_generator6formatNtB5_10FormatKind5parse
FNDA:1,_RNvNtCs3I23rWd8G42_16syslog_generator6format13build_rfc3164
FNDA:1,_RNvNtCs3I23rWd8G42_16syslog_generator6format13build_rfc5424
FNDA:6,_RNvNtCs3I23rWd8G42_16syslog_generator6format15escape_sd_value
FNDA:2,_RNvNtCs3I23rWd8G42_16syslog_generator6format9build_raw
FNDA:17,_RNvXNtCs3I23rWd8G42_16syslog_generator6formatNtB2_10FormatKindNtB2_6Format6render
FNDA:7,_RNvXs_NtCs3I23rWd8G42_16syslog_generator6formatNtB4_10FormatKindNtNtCsl8K0bEFm1U0_4core3fmt7Display3fmt
FNDA:90,_RNvNtCs3I23rWd8G42_16syslog_generator6format15sanitize_header
FNDA:31,_RNvNtCs3I23rWd8G42_16syslog_generator6format17rfc5424_timestamp
FNF:30
FNH:30
DA:60,431
DA:61,431
DA:62,431
DA:63,431
DA:64,431
DA:72,1697
DA:73,1697
DA:74,813
DA:75,884
DA:76,884
DA:77,884
DA:78,11578
DA:79,884
DA:80,884
DA:81,884
DA:82,0
DA:84,884
DA:86,1697
DA:93,36
DA:94,36
DA:95,36
DA:101,3142
DA:102,3142
DA:103,3142
DA:107,6
DA:108,6
DA:109,49
DA:110,49
DA:111,6
DA:112,6
DA:113,6
DA:114,6
DA:115,43
DA:118,6
DA:119,6
DA:195,6667
DA:196,6667
DA:197,409
DA:198,1
DA:199,6246
DA:200,2
DA:204,2
DA:205,2
DA:206,2
DA:207,2
DA:208,2
DA:209,2
DA:210,2
DA:211,8
DA:212,2
DA:213,2
DA:218,4
DA:219,3
DA:220,1
DA:225,3
DA:226,2
DA:227,1
DA:230,2
DA:232,6667
DA:238,7
DA:239,7
DA:240,1
DA:241,1
DA:242,1
DA:243,1
DA:244,1
DA:245,1
DA:246,1
DA:248,7
DA:249,7
DA:255,3584
DA:256,3584
DA:257,3584
DA:258,3562
DA:259,3560
DA:260,9
DA:261,8
DA:262,5
DA:263,3
DA:264,1
DA:266,3584
DA:275,1
DA:276,1
DA:277,1
DA:279,1
DA:280,1
DA:281,1
DA:283,2
DA:287,2
DA:288,2
DA:297,1
DA:299,1
DA:300,1
DA:301,1
DA:304,1
DA:305,1
DA:311,1
DA:312,1
DA:313,1
DA:314,1
DA:315,1
DA:316,1
DA:317,1
DA:318,1
DA:319,1
DA:320,1
DA:321,1
DA:322,1
DA:323,1
DA:324,1
DA:325,1
DA:326,1
DA:327,1
DA:328,1
DA:329,1
DA:330,1
DA:331,1
DA:332,1
DA:333,1
DA:337,1
DA:338,1
DA:339,1
DA:340,1
DA:341,1
DA:342,1
DA:343,1
DA:344,1
DA:345,1
DA:346,1
DA:347,1
DA:348,1
DA:349,1
DA:350,1
DA:351,1
DA:352,1
DA:353,1
DA:354,1
DA:355,1
DA:356,1
DA:357,1
DA:361,1
DA:362,1
DA:363,1
DA:364,1
DA:365,1
DA:366,1
DA:367,1
DA:368,1
DA:369,1
DA:373,1
DA:374,1
DA:375,1
DA:378,1
DA:379,1
DA:382,1
DA:383,1
DA:384,1
DA:387,1
DA:388,1
DA:389,1
DA:390,1
DA:393,1
DA:394,1
DA:398,10
DA:399,10
DA:400,10
DA:401,10
DA:402,10
DA:403,10
DA:404,10
DA:405,10
DA:406,10
DA:407,10
DA:408,10
DA:409,10
DA:410,10
DA:415,1
DA:417,1
DA:418,1
DA:420,1
DA:421,1
DA:422,1
DA:424,1
DA:425,1
DA:429,1
DA:430,1
DA:431,1
DA:432,1
DA:433,1
DA:435,1
DA:436,1
DA:437,1
DA:441,1
DA:442,1
DA:443,1
DA:444,1
DA:445,1
DA:446,1
DA:447,1
DA:451,1
DA:452,1
DA:453,1
DA:455,1
DA:456,1
DA:462,1
DA:463,1
DA:464,1
DA:465,1
DA:466,1
DA:467,1
DA:468,1
DA:469,1
DA:470,1
DA:472,1
DA:473,1
DA:478,1
DA:480,1
DA:483,1
DA:484,1
DA:485,1
DA:486,1
DA:487,1
DA:488,1
DA:489,1
DA:490,1
DA:491,1
DA:492,1
DA:493,1
DA:494,1
DA:495,1
DA:496,1
DA:498,1
DA:499,1
DA:500,1
DA:505,1
DA:506,1
DA:507,1
DA:508,1
DA:509,1
DA:510,1
DA:511,1
DA:512,1
DA:513,1
DA:514,1
DA:515,1
DA:516,1
DA:521,1
DA:523,1
DA:524,1
DA:525,1
DA:526,1
DA:527,1
DA:528,1
DA:529,1
DA:530,1
DA:531,1
DA:532,1
DA:533,1
DA:534,1
DA:535,1
DA:536,1
DA:537,1
DA:538,1
DA:539,1
DA:540,1
DA:542,1
DA:543,1
DA:546,1
DA:551,1
DA:552,1
DA:553,1
DA:554,1
DA:555,1
DA:556,1
DA:557,1
DA:558,1
DA:559,1
DA:560,1
DA:561,1
DA:562,1
DA:567,1
DA:569,1
DA:570,1
DA:571,1
DA:572,1
DA:573,1
DA:574,1
DA:575,1
DA:576,1
DA:577,1
DA:578,1
DA:579,1
DA:580,1
DA:581,1
DA:582,1
DA:583,1
DA:584,1
DA:586,1
DA:587,1
DA:590,1
DA:595,1
DA:597,1
DA:598,1
DA:599,1
DA:600,1
DA:601,1
DA:602,1
DA:603,1
DA:604,1
DA:605,1
DA:606,1
DA:607,1
DA:609,1
DA:610,1
DA:611,1
DA:612,1
DA:613,1
DA:614,1
DA:615,1
BRF:0
BRH:0
LF:321
LH:319
end_of_record
SF:/private/tmp/pr17a-worktree/src/format/protobuf.rs
FN:45,_RNvMNtNtCsdYvAweMv4CD_16syslog_generator6format8protobufNtB2_6PbType5parse
FN:59,_RNvMNtNtCsdYvAweMv4CD_16syslog_generator6format8protobufNtB2_6PbType9wire_type
FN:95,_RNvNtNtCsdYvAweMv4CD_16syslog_generator6format8protobuf12encode_field
FN:70,_RNvNtNtCsdYvAweMv4CD_16syslog_generator6format8protobuf12write_varint
FN:164,_RNvNtNtCsdYvAweMv4CD_16syslog_generator6format8protobuf13is_known_type
FN:193,_RNvNtNtCsdYvAweMv4CD_16syslog_generator6format8protobuf14resolve_fields
FN:141,_RNvNtNtCsdYvAweMv4CD_16syslog_generator6format8protobuf16parse_field_spec
FN:229,_RNvNtNtCsdYvAweMv4CD_16syslog_generator6format8protobuf18serialize_protobuf
FN:211,_RNvNtNtCsdYvAweMv4CD_16syslog_generator6format8protobuf21apply_protobuf_schema
FN:246,_RNvNtNtCsdYvAweMv4CD_16syslog_generator6format8protobuf23serialize_protobuf_like
FN:85,_RNvNtNtCsdYvAweMv4CD_16syslog_generator6format8protobuf6zigzag
FN:90,_RNvNtNtCsdYvAweMv4CD_16syslog_generator6format8protobuf9write_tag
FN:45,_RNvMNtNtCs3I23rWd8G42_16syslog_generator6format8protobufNtB2_6PbType5parse
FN:59,_RNvMNtNtCs3I23rWd8G42_16syslog_generator6format8protobufNtB2_6PbType9wire_type
FN:95,_RNvNtNtCs3I23rWd8G42_16syslog_generator6format8protobuf12encode_field
FN:70,_RNvNtNtCs3I23rWd8G42_16syslog_generator6format8protobuf12write_varint
FN:164,_RNvNtNtCs3I23rWd8G42_16syslog_generator6format8protobuf13is_known_type
FN:193,_RNvNtNtCs3I23rWd8G42_16syslog_generator6format8protobuf14resolve_fields
FN:141,_RNvNtNtCs3I23rWd8G42_16syslog_generator6format8protobuf16parse_field_spec
FN:229,_RNvNtNtCs3I23rWd8G42_16syslog_generator6format8protobuf18serialize_protobuf
FN:211,_RNvNtNtCs3I23rWd8G42_16syslog_generator6format8protobuf21apply_protobuf_schema
FN:246,_RNvNtNtCs3I23rWd8G42_16syslog_generator6format8protobuf23serialize_protobuf_like
FN:85,_RNvNtNtCs3I23rWd8G42_16syslog_generator6format8protobuf6zigzag
FN:90,_RNvNtNtCs3I23rWd8G42_16syslog_generator6format8protobuf9write_tag
FN:257,_RNvNtNtNtCs3I23rWd8G42_16syslog_generator6format8protobuf5tests4vals
FN:303,_RNvNtNtNtCs3I23rWd8G42_16syslog_generator6format8protobuf5testss_19parse_spec_variants
FN:275,_RNvNtNtNtCs3I23rWd8G42_16syslog_generator6format8protobuf5testss_19zigzag_matches_spec
FN:295,_RNvNtNtNtCs3I23rWd8G42_16syslog_generator6format8protobuf5testss_21int_field_wire_format
FN:344,_RNvNtNtNtCs3I23rWd8G42_16syslog_generator6format8protobuf5testss_22bool_and_double_fields
FN:284,_RNvNtNtNtCs3I23rWd8G42_16syslog_generator6format8protobuf5testss_24string_field_wire_format
FN:262,_RNvNtNtNtCs3I23rWd8G42_16syslog_generator6format8protobuf5testss_28varint_encoding_matches_spec
FN:324,_RNvNtNtNtCs3I23rWd8G42_16syslog_generator6format8protobuf5testss_31full_message_is_decodable_order
FN:339,_RNvNtNtNtCs3I23rWd8G42_16syslog_generator6format8protobuf5testss_32empty_schema_yields_empty_buffer
FN:594,_RNvNtNtNtCs3I23rWd8G42_16syslog_generator6format8protobuf5testss_35apply_protobuf_schema_none_is_empty
FN:603,_RNvNtNtNtCs3I23rWd8G42_16syslog_generator6format8protobuf5testss_40parse_field_spec_malformed_explicit_type
FN:359,_RNvNtNtNtCs3I23rWd8G42_16syslog_generator6format8protobuf5testss_49parse_field_spec_all_documented_forms_and_aliases
FN:616,_RNvNtNtNtCs3I23rWd8G42_16syslog_generator6format8protobuf5testss_49serialize_protobuf_like_round_trips_simple_schema
FN:424,_RNvNtNtNtCs3I23rWd8G42_16syslog_generator6format8protobuf5testss_51encode_field_all_pb_types_writes_correct_wire_types
FNDA:1,_RNvMNtNtCsdYvAweMv4CD_16syslog_generator6format8protobufNtB2_6PbType5parse
FNDA:2,_RNvMNtNtCsdYvAweMv4CD_16syslog_generator6format8protobufNtB2_6PbType9wire_type
FNDA:2,_RNvNtNtCsdYvAweMv4CD_16syslog_generator6format8protobuf12encode_field
FNDA:4,_RNvNtNtCsdYvAweMv4CD_16syslog_generator6format8protobuf12write_varint
FNDA:1,_RNvNtNtCsdYvAweMv4CD_16syslog_generator6format8protobuf13is_known_type
FNDA:1,_RNvNtNtCsdYvAweMv4CD_16syslog_generator6format8protobuf14resolve_fields
FNDA:3,_RNvNtNtCsdYvAweMv4CD_16syslog_generator6format8protobuf16parse_field_spec
FNDA:1,_RNvNtNtCsdYvAweMv4CD_16syslog_generator6format8protobuf18serialize_protobuf
FNDA:1,_RNvNtNtCsdYvAweMv4CD_16syslog_generator6format8protobuf21apply_protobuf_schema
FNDA:0,_RNvNtNtCsdYvAweMv4CD_16syslog_generator6format8protobuf23serialize_protobuf_like
FNDA:0,_RNvNtNtCsdYvAweMv4CD_16syslog_generator6format8protobuf6zigzag
FNDA:2,_RNvNtNtCsdYvAweMv4CD_16syslog_generator6format8protobuf9write_tag
FNDA:26,_RNvMNtNtCs3I23rWd8G42_16syslog_generator6format8protobufNtB2_6PbType5parse
FNDA:19,_RNvMNtNtCs3I23rWd8G42_16syslog_generator6format8protobufNtB2_6PbType9wire_type
FNDA:19,_RNvNtNtCs3I23rWd8G42_16syslog_generator6format8protobuf12encode_field
FNDA:38,_RNvNtNtCs3I23rWd8G42_16syslog_generator6format8protobuf12write_varint
FNDA:26,_RNvNtNtCs3I23rWd8G42_16syslog_generator6format8protobuf13is_known_type
FNDA:6,_RNvNtNtCs3I23rWd8G42_16syslog_generator6format8protobuf14resolve_fields
FNDA:33,_RNvNtNtCs3I23rWd8G42_16syslog_generator6format8protobuf16parse_field_spec
FNDA:6,_RNvNtNtCs3I23rWd8G42_16syslog_generator6format8protobuf18serialize_protobuf
FNDA:1,_RNvNtNtCs3I23rWd8G42_16syslog_generator6format8protobuf21apply_protobuf_schema
FNDA:2,_RNvNtNtCs3I23rWd8G42_16syslog_generator6format8protobuf23serialize_protobuf_like
FNDA:6,_RNvNtNtCs3I23rWd8G42_16syslog_generator6format8protobuf6zigzag
FNDA:19,_RNvNtNtCs3I23rWd8G42_16syslog_generator6format8protobuf9write_tag
FNDA:2,_RNvNtNtNtCs3I23rWd8G42_16syslog_generator6format8protobuf5tests4vals
FNDA:1,_RNvNtNtNtCs3I23rWd8G42_16syslog_generator6format8protobuf5testss_19parse_spec_variants
FNDA:1,_RNvNtNtNtCs3I23rWd8G42_16syslog_generator6format8protobuf5testss_19zigzag_matches_spec
FNDA:1,_RNvNtNtNtCs3I23rWd8G42_16syslog_generator6format8protobuf5testss_21int_field_wire_format
FNDA:1,_RNvNtNtNtCs3I23rWd8G42_16syslog_generator6format8protobuf5testss_22bool_and_double_fields
FNDA:1,_RNvNtNtNtCs3I23rWd8G42_16syslog_generator6format8protobuf5testss_24string_field_wire_format
FNDA:1,_RNvNtNtNtCs3I23rWd8G42_16syslog_generator6format8protobuf5testss_28varint_encoding_matches_spec
FNDA:1,_RNvNtNtNtCs3I23rWd8G42_16syslog_generator6format8protobuf5testss_31full_message_is_decodable_order
FNDA:1,_RNvNtNtNtCs3I23rWd8G42_16syslog_generator6format8protobuf5testss_32empty_schema_yields_empty_buffer
FNDA:1,_RNvNtNtNtCs3I23rWd8G42_16syslog_generator6format8protobuf5testss_35apply_protobuf_schema_none_is_empty
FNDA:1,_RNvNtNtNtCs3I23rWd8G42_16syslog_generator6format8protobuf5testss_40parse_field_spec_malformed_explicit_type
FNDA:1,_RNvNtNtNtCs3I23rWd8G42_16syslog_generator6format8protobuf5testss_49parse_field_spec_all_documented_forms_and_aliases
FNDA:1,_RNvNtNtNtCs3I23rWd8G42_16syslog_generator6format8protobuf5testss_49serialize_protobuf_like_round_trips_simple_schema
FNDA:1,_RNvNtNtNtCs3I23rWd8G42_16syslog_generator6format8protobuf5testss_51encode_field_all_pb_types_writes_correct_wire_types
FNF:26
FNH:26
DA:45,27
DA:46,27
DA:47,27
DA:48,20
DA:49,16
DA:50,13
DA:51,11
DA:52,9
DA:53,7
DA:54,6
DA:56,27
DA:59,21
DA:60,21
DA:61,7
DA:62,11
DA:63,2
DA:64,1
DA:66,21
DA:70,42
DA:72,56
DA:73,56
DA:74,56
DA:75,14
DA:76,42
DA:77,56
DA:78,56
DA:79,42
DA:80,14
DA:82,42
DA:85,6
DA:86,6
DA:87,6
DA:90,21
DA:91,21
DA:92,21
DA:95,21
DA:96,21
DA:97,21
DA:98,7
DA:99,7
DA:100,7
DA:101,7
DA:102,7
DA:103,5
DA:104,5
DA:105,5
DA:106,5
DA:107,5
DA:108,2
DA:109,2
DA:110,2
DA:111,2
DA:112,1
DA:113,1
DA:114,1
DA:115,1
DA:117,3
DA:118,3
DA:119,3
DA:121,3
DA:123,2
DA:124,2
DA:125,2
DA:126,2
DA:127,1
DA:128,1
DA:129,1
DA:130,1
DA:132,21
DA:141,36
DA:143,36
DA:144,33
DA:146,32
DA:147,27
DA:151,27
DA:152,25
DA:153,2
DA:154,5
DA:156,7
DA:157,1
DA:158,3
DA:160,4
DA:161,36
DA:164,27
DA:165,25
DA:166,27
DA:167,27
DA:168,22
DA:169,21
DA:170,20
DA:171,18
DA:172,17
DA:173,16
DA:174,15
DA:175,14
DA:176,13
DA:177,12
DA:178,11
DA:179,10
DA:180,9
DA:181,8
DA:182,7
DA:183,6
DA:184,4
DA:186,27
DA:193,7
DA:194,7
DA:195,7
DA:196,7
DA:197,7
DA:198,7
DA:199,4
DA:200,4
DA:201,8
DA:202,8
DA:203,8
DA:204,8
DA:205,8
DA:206,3
DA:207,7
DA:208,7
DA:211,2
DA:212,2
DA:213,2
DA:214,2
DA:215,2
DA:216,2
DA:217,1
DA:218,1
DA:219,1
DA:220,1
DA:221,1
DA:222,2
DA:223,2
DA:229,7
DA:230,7
DA:231,7
DA:232,7
DA:233,7
DA:234,7
DA:237,7
DA:238,7
DA:239,8
DA:240,8
DA:241,8
DA:242,7
DA:243,7
DA:246,2
DA:247,2
DA:248,2
DA:249,2
DA:250,2
DA:251,2
DA:257,2
DA:258,2
DA:259,2
DA:262,1
DA:263,1
DA:264,1
DA:265,1
DA:266,1
DA:267,1
DA:268,1
DA:269,1
DA:270,1
DA:271,1
DA:272,1
DA:275,1
DA:276,1
DA:277,1
DA:278,1
DA:279,1
DA:280,1
DA:281,1
DA:284,1
DA:286,1
DA:287,1
DA:289,1
DA:290,1
DA:291,1
DA:292,1
DA:295,1
DA:297,1
DA:298,1
DA:299,1
DA:300,1
DA:303,1
DA:304,1
DA:305,1
DA:306,1
DA:308,1
DA:309,1
DA:310,1
DA:312,1
DA:313,1
DA:314,1
DA:317,1
DA:318,1
DA:319,1
DA:321,1
DA:324,1
DA:325,1
DA:326,1
DA:327,1
DA:328,1
DA:329,1
DA:330,1
DA:332,1
DA:334,1
DA:336,1
DA:339,1
DA:340,1
DA:341,1
DA:344,1
DA:345,1
DA:346,1
DA:347,1
DA:348,1
DA:349,1
DA:351,1
DA:352,1
DA:353,1
DA:359,1
DA:364,1
DA:365,1
DA:366,1
DA:367,1
DA:369,1
DA:370,1
DA:371,1
DA:372,1
DA:375,9
DA:376,1
DA:377,1
DA:378,1
DA:379,1
DA:380,1
DA:381,1
DA:382,1
DA:383,1
DA:384,1
DA:385,1
DA:386,9
DA:387,9
DA:391,9
DA:392,1
DA:393,1
DA:394,1
DA:395,1
DA:396,1
DA:397,1
DA:398,1
DA:399,1
DA:400,1
DA:401,1
DA:402,9
DA:403,9
DA:407,1
DA:408,1
DA:409,1
DA:410,1
DA:413,1
DA:414,1
DA:415,1
DA:416,1
DA:417,1
DA:424,1
DA:428,1
DA:429,1
DA:430,1
DA:431,1
DA:432,1
DA:435,0
DA:437,1
DA:438,1
DA:441,0
DA:445,1
DA:446,1
DA:447,1
DA:448,1
DA:451,0
DA:453,1
DA:454,1
DA:457,0
DA:460,1
DA:461,1
DA:464,0
DA:469,1
DA:470,1
DA:471,1
DA:472,1
DA:475,0
DA:477,1
DA:478,1
DA:481,0
DA:486,1
DA:487,1
DA:488,1
DA:489,1
DA:492,0
DA:494,1
DA:495,1
DA:498,0
DA:503,1
DA:504,1
DA:505,1
DA:506,1
DA:509,0
DA:511,1
DA:512,1
DA:514,0
DA:518,1
DA:519,1
DA:520,1
DA:521,1
DA:524,0
DA:526,1
DA:527,1
DA:529,0
DA:533,1
DA:534,1
DA:535,1
DA:536,1
DA:539,0
DA:541,1
DA:542,1
DA:545,0
DA:550,1
DA:551,1
DA:552,1
DA:553,1
DA:556,0
DA:560,1
DA:561,1
DA:564,0
DA:569,1
DA:570,1
DA:571,1
DA:572,1
DA:575,0
DA:578,1
DA:579,1
DA:584,1
DA:585,1
DA:587,0
DA:589,1
DA:594,1
DA:595,1
DA:596,1
DA:597,1
DA:598,1
DA:603,1
DA:606,1
DA:607,1
DA:609,1
DA:610,1
DA:611,1
DA:616,1
DA:620,1
DA:621,1
DA:622,1
DA:623,1
DA:624,1
DA:626,1
DA:627,1
DA:628,1
DA:630,1
DA:631,1
DA:634,1
DA:635,1
BRF:0
BRH:0
LF:370
LH:350
end_of_record
SF:/private/tmp/pr17a-worktree/src/format/raw.rs
FN:11,_RNvNtNtCsdYvAweMv4CD_16syslog_generator6format3raw5build
FN:20,_RNvNtNtNtCs3I23rWd8G42_16syslog_generator6format3raw5tests11test_header
FN:67,_RNvNtNtNtCs3I23rWd8G42_16syslog_generator6format3raw5testss_22raw_format_binary_data
FN:45,_RNvNtNtNtCs3I23rWd8G42_16syslog_generator6format3raw5testss_24raw_format_empty_message
FN:53,_RNvNtNtNtCs3I23rWd8G42_16syslog_generator6format3raw5testss_25raw_format_ignores_header
FN:36,_RNvNtNtNtCs3I23rWd8G42_16syslog_generator6format3raw5testss_43raw_format_passes_through_message_unchanged
FN:11,_RNvNtNtCs3I23rWd8G42_16syslog_generator6format3raw5build
FNDA:0,_RNvNtNtCsdYvAweMv4CD_16syslog_generator6format3raw5build
FNDA:5,_RNvNtNtNtCs3I23rWd8G42_16syslog_generator6format3raw5tests11test_header
FNDA:1,_RNvNtNtNtCs3I23rWd8G42_16syslog_generator6format3raw5testss_22raw_format_binary_data
FNDA:1,_RNvNtNtNtCs3I23rWd8G42_16syslog_generator6format3raw5testss_24raw_format_empty_message
FNDA:1,_RNvNtNtNtCs3I23rWd8G42_16syslog_generator6format3raw5testss_25raw_format_ignores_header
FNDA:1,_RNvNtNtNtCs3I23rWd8G42_16syslog_generator6format3raw5testss_43raw_format_passes_through_message_unchanged
FNDA:5,_RNvNtNtCs3I23rWd8G42_16syslog_generator6format3raw5build
FNF:6
FNH:6
DA:11,5
DA:12,5
DA:13,5
DA:20,5
DA:21,5
DA:22,5
DA:23,5
DA:24,5
DA:25,5
DA:26,5
DA:27,5
DA:28,5
DA:29,5
DA:30,5
DA:31,5
DA:32,5
DA:36,1
DA:37,1
DA:38,1
DA:39,1
DA:40,1
DA:41,1
DA:45,1
DA:46,1
DA:47,1
DA:48,1
DA:49,1
DA:53,1
DA:54,1
DA:55,1
DA:56,1
DA:57,1
DA:58,1
DA:59,1
DA:60,1
DA:62,1
DA:63,1
DA:67,1
DA:68,1
DA:69,1
DA:70,1
DA:71,1
DA:72,1
BRF:0
BRH:0
LF:43
LH:43
end_of_record
SF:/private/tmp/pr17a-worktree/src/format/rfc3164.rs
FN:16,_RNvNtNtCsdYvAweMv4CD_16syslog_generator6format7rfc31645buildB5_
FN:82,_RNvNtNtNtCs3I23rWd8G42_16syslog_generator6format7rfc31645tests11test_header
FN:111,_RNvNtNtNtCs3I23rWd8G42_16syslog_generator6format7rfc31645testss_23rfc3164_tag_with_procid
FN:124,_RNvNtNtNtCs3I23rWd8G42_16syslog_generator6format7rfc31645testss_26rfc3164_tag_without_procid
FN:98,_RNvNtNtNtCs3I23rWd8G42_16syslog_generator6format7rfc31645testss_28rfc3164_prival_in_pri_header
FN:177,_RNvNtNtNtCs3I23rWd8G42_16syslog_generator6format7rfc31645testss_32rfc3164_nilvalue_app_becomes_app
FN:138,_RNvNtNtNtCs3I23rWd8G42_16syslog_generator6format7rfc31645testss_32rfc3164_tag_with_nilvalue_procid
FN:166,_RNvNtNtNtCs3I23rWd8G42_16syslog_generator6format7rfc31645testss_37rfc3164_empty_app_name_does_not_panic
FN:191,_RNvNtNtNtCs3I23rWd8G42_16syslog_generator6format7rfc31645testss_39rfc3164_space_separates_header_from_msg
FN:152,_RNvNtNtNtCs3I23rWd8G42_16syslog_generator6format7rfc31645testss_43rfc3164_nilvalue_hostname_becomes_localhost
FN:16,_RNvNtNtCs3I23rWd8G42_16syslog_generator6format7rfc31645buildB5_
FNDA:1,_RNvNtNtCsdYvAweMv4CD_16syslog_generator6format7rfc31645buildB5_
FNDA:8,_RNvNtNtNtCs3I23rWd8G42_16syslog_generator6format7rfc31645tests11test_header
FNDA:1,_RNvNtNtNtCs3I23rWd8G42_16syslog_generator6format7rfc31645testss_23rfc3164_tag_with_procid
FNDA:1,_RNvNtNtNtCs3I23rWd8G42_16syslog_generator6format7rfc31645testss_26rfc3164_tag_without_procid
FNDA:1,_RNvNtNtNtCs3I23rWd8G42_16syslog_generator6format7rfc31645testss_28rfc3164_prival_in_pri_header
FNDA:1,_RNvNtNtNtCs3I23rWd8G42_16syslog_generator6format7rfc31645testss_32rfc3164_nilvalue_app_becomes_app
FNDA:1,_RNvNtNtNtCs3I23rWd8G42_16syslog_generator6format7rfc31645testss_32rfc3164_tag_with_nilvalue_procid
FNDA:1,_RNvNtNtNtCs3I23rWd8G42_16syslog_generator6format7rfc31645testss_37rfc3164_empty_app_name_does_not_panic
FNDA:1,_RNvNtNtNtCs3I23rWd8G42_16syslog_generator6format7rfc31645testss_39rfc3164_space_separates_header_from_msg
FNDA:1,_RNvNtNtNtCs3I23rWd8G42_16syslog_generator6format7rfc31645testss_43rfc3164_nilvalue_hostname_becomes_localhost
FNDA:10,_RNvNtNtCs3I23rWd8G42_16syslog_generator6format7rfc31645buildB5_
FNF:10
FNH:10
DA:16,11
DA:17,11
DA:20,11
DA:23,11
DA:24,11
DA:25,1
DA:27,10
DA:31,11
DA:32,11
DA:33,2
DA:35,9
DA:39,11
DA:40,11
DA:44,11
DA:45,11
DA:46,11
DA:47,11
DA:48,11
DA:49,11
DA:50,11
DA:52,11
DA:53,11
DA:56,11
DA:58,11
DA:59,11
DA:62,11
DA:63,11
DA:64,9
DA:65,9
DA:66,9
DA:67,9
DA:68,2
DA:69,2
DA:71,11
DA:72,11
DA:74,11
DA:75,11
DA:82,8
DA:83,8
DA:84,8
DA:85,8
DA:86,8
DA:87,8
DA:88,8
DA:89,8
DA:90,8
DA:91,8
DA:92,8
DA:93,8
DA:94,8
DA:98,1
DA:99,1
DA:100,1
DA:102,1
DA:103,1
DA:105,0
DA:107,1
DA:111,1
DA:112,1
DA:113,1
DA:114,1
DA:115,1
DA:116,1
DA:120,1
DA:124,1
DA:125,1
DA:126,1
DA:127,1
DA:128,1
DA:129,1
DA:130,1
DA:134,1
DA:138,1
DA:139,1
DA:140,1
DA:141,1
DA:142,1
DA:143,1
DA:144,1
DA:148,1
DA:152,1
DA:153,1
DA:154,1
DA:155,1
DA:156,1
DA:157,1
DA:158,1
DA:162,1
DA:166,1
DA:167,1
DA:168,1
DA:169,1
DA:170,1
DA:171,1
DA:172,1
DA:177,1
DA:178,1
DA:179,1
DA:180,1
DA:181,1
DA:182,1
DA:183,1
DA:187,1
DA:191,1
DA:192,1
DA:193,1
DA:194,1
DA:195,1
DA:196,1
DA:200,1
BRF:0
BRH:0
LF:110
LH:109
end_of_record
SF:/private/tmp/pr17a-worktree/src/format/rfc5424.rs
FN:17,_RNvNtNtCsdYvAweMv4CD_16syslog_generator6format7rfc54245buildB5_
FN:112,_RNCNvNtNtNtCs3I23rWd8G42_16syslog_generator6format7rfc54245testss_27includes_bom_when_requested0B9_
FN:76,_RNvNtNtNtCs3I23rWd8G42_16syslog_generator6format7rfc54245tests3hdr
FN:142,_RNvNtNtNtCs3I23rWd8G42_16syslog_generator6format7rfc54245testss_16prival_high_bits
FN:91,_RNvNtNtNtCs3I23rWd8G42_16syslog_generator6format7rfc54245testss_22builds_minimal_rfc5424
FN:106,_RNvNtNtNtCs3I23rWd8G42_16syslog_generator6format7rfc54245testss_27includes_bom_when_requested
FN:130,_RNvNtNtNtCs3I23rWd8G42_16syslog_generator6format7rfc54245testss_32preserves_custom_structured_data
FN:118,_RNvNtNtNtCs3I23rWd8G42_16syslog_generator6format7rfc54245testss_38empty_structured_data_becomes_nilvalue
FN:17,_RNvNtNtCs3I23rWd8G42_16syslog_generator6format7rfc54245buildB5_
FNDA:401,_RNvNtNtCsdYvAweMv4CD_16syslog_generator6format7rfc54245buildB5_
FNDA:54,_RNCNvNtNtNtCs3I23rWd8G42_16syslog_generator6format7rfc54245testss_27includes_bom_when_requested0B9_
FNDA:5,_RNvNtNtNtCs3I23rWd8G42_16syslog_generator6format7rfc54245tests3hdr
FNDA:1,_RNvNtNtNtCs3I23rWd8G42_16syslog_generator6format7rfc54245testss_16prival_high_bits
FNDA:1,_RNvNtNtNtCs3I23rWd8G42_16syslog_generator6format7rfc54245testss_22builds_minimal_rfc5424
FNDA:1,_RNvNtNtNtCs3I23rWd8G42_16syslog_generator6format7rfc54245testss_27includes_bom_when_requested
FNDA:1,_RNvNtNtNtCs3I23rWd8G42_16syslog_generator6format7rfc54245testss_32preserves_custom_structured_data
FNDA:1,_RNvNtNtNtCs3I23rWd8G42_16syslog_generator6format7rfc54245testss_38empty_structured_data_becomes_nilvalue
FNDA:15,_RNvNtNtCs3I23rWd8G42_16syslog_generator6format7rfc54245buildB5_
FNF:8
FNH:8
DA:17,416
DA:18,416
DA:19,416
DA:20,416
DA:21,416
DA:22,416
DA:26,416
DA:27,416
DA:28,416
DA:29,416
DA:30,416
DA:31,416
DA:32,416
DA:33,416
DA:36,416
DA:39,416
DA:40,17
DA:41,17
DA:42,399
DA:43,399
DA:44,399
DA:47,416
DA:48,416
DA:49,416
DA:50,416
DA:51,416
DA:52,416
DA:53,416
DA:54,416
DA:55,416
DA:56,416
DA:57,1
DA:58,415
DA:59,415
DA:60,415
DA:63,416
DA:64,416
DA:65,2
DA:66,414
DA:67,416
DA:69,416
DA:70,416
DA:76,5
DA:77,5
DA:78,5
DA:79,5
DA:80,5
DA:81,5
DA:82,5
DA:83,5
DA:84,5
DA:85,5
DA:86,5
DA:87,5
DA:88,5
DA:91,1
DA:92,1
DA:93,1
DA:95,1
DA:96,1
DA:98,1
DA:99,1
DA:100,1
DA:101,1
DA:102,1
DA:103,1
DA:106,1
DA:107,1
DA:108,1
DA:109,1
DA:111,1
DA:112,54
DA:115,1
DA:118,1
DA:119,1
DA:120,1
DA:121,1
DA:122,1
DA:123,1
DA:124,1
DA:127,1
DA:130,1
DA:131,1
DA:132,1
DA:133,1
DA:134,1
DA:135,1
DA:136,1
DA:139,1
DA:142,1
DA:144,1
DA:145,1
DA:146,1
DA:147,1
DA:148,1
DA:149,1
BRF:0
BRH:0
LF:97
LH:97
end_of_record
SF:/private/tmp/pr17a-worktree/src/generator/config.rs
FN:352,_RNvMs1_NtNtCsdYvAweMv4CD_16syslog_generator9generator6configNtB5_5Phase11format_type
FN:219,_RNvNtNtCsdYvAweMv4CD_16syslog_generator9generator6config11default_nil
FN:158,_RNvNtNtCsdYvAweMv4CD_16syslog_generator9generator6config14default_weight
FN:161,_RNvNtNtCsdYvAweMv4CD_16syslog_generator9generator6config15default_framing
FN:216,_RNvNtNtCsdYvAweMv4CD_16syslog_generator9generator6config16default_app_name
FN:207,_RNvNtNtCsdYvAweMv4CD_16syslog_generator9generator6config16default_facility
FN:213,_RNvNtNtCsdYvAweMv4CD_16syslog_generator9generator6config16default_hostname
FN:210,_RNvNtNtCsdYvAweMv4CD_16syslog_generator9generator6config16default_severity
FN:155,_RNvNtNtCsdYvAweMv4CD_16syslog_generator9generator6config19default_connections
FN:356,_RNvNtNtCsdYvAweMv4CD_16syslog_generator9generator6config20default_distribution
FN:238,_RNvNtNtCsdYvAweMv4CD_16syslog_generator9generator6config21default_shutdown_mode
FN:420,_RNvNtNtCsdYvAweMv4CD_16syslog_generator9generator6config22load_profile_from_path
FN:391,_RNvNtNtCsdYvAweMv4CD_16syslog_generator9generator6config26load_profile_from_json_str
FN:403,_RNvNtNtCsdYvAweMv4CD_16syslog_generator9generator6config26load_profile_from_yaml_str
FN:241,_RNvNtNtCsdYvAweMv4CD_16syslog_generator9generator6config35default_shutdown_drain_timeout_secs
FN:119,_RNvXNtNtCsdYvAweMv4CD_16syslog_generator9generator6configNtB2_12TargetConfigNtNtCsl8K0bEFm1U0_4core7default7Default7default
FN:231,_RNvXs0_NtNtCsdYvAweMv4CD_16syslog_generator9generator6configNtB5_14ShutdownConfigNtNtCsl8K0bEFm1U0_4core7default7Default7default
FN:376,_RNvXs2_NtNtCsdYvAweMv4CD_16syslog_generator9generator6configNtB5_7ProfileNtNtCsl8K0bEFm1U0_4core7default7Default7default
FN:194,_RNvXs_NtNtCsdYvAweMv4CD_16syslog_generator9generator6configNtB4_12SyslogConfigNtNtCsl8K0bEFm1U0_4core7default7Default7default
FN:424,_RNCNvNtNtCsdYvAweMv4CD_16syslog_generator9generator6config22load_profile_from_path0B7_
FN:451,_RNCNvNtNtCsdYvAweMv4CD_16syslog_generator9generator6config22load_profile_from_paths0_0B7_
FN:456,_RNCNvNtNtCsdYvAweMv4CD_16syslog_generator9generator6config22load_profile_from_paths1_0B7_
FN:461,_RNCNvNtNtCsdYvAweMv4CD_16syslog_generator9generator6config22load_profile_from_paths2_0B7_
FN:445,_RNCNvNtNtCsdYvAweMv4CD_16syslog_generator9generator6config22load_profile_from_paths_0B7_
FN:393,_RNCNvNtNtCsdYvAweMv4CD_16syslog_generator9generator6config26load_profile_from_json_str0B7_
FN:405,_RNCNvNtNtCsdYvAweMv4CD_16syslog_generator9generator6config26load_profile_from_yaml_str0B7_
FN:352,_RNvMs1_NtNtCs3I23rWd8G42_16syslog_generator9generator6configNtB5_5Phase11format_type
FN:219,_RNvNtNtCs3I23rWd8G42_16syslog_generator9generator6config11default_nil
FN:158,_RNvNtNtCs3I23rWd8G42_16syslog_generator9generator6config14default_weight
FN:161,_RNvNtNtCs3I23rWd8G42_16syslog_generator9generator6config15default_framing
FN:216,_RNvNtNtCs3I23rWd8G42_16syslog_generator9generator6config16default_app_name
FN:207,_RNvNtNtCs3I23rWd8G42_16syslog_generator9generator6config16default_facility
FN:213,_RNvNtNtCs3I23rWd8G42_16syslog_generator9generator6config16default_hostname
FN:210,_RNvNtNtCs3I23rWd8G42_16syslog_generator9generator6config16default_severity
FN:155,_RNvNtNtCs3I23rWd8G42_16syslog_generator9generator6config19default_connections
FN:356,_RNvNtNtCs3I23rWd8G42_16syslog_generator9generator6config20default_distribution
FN:238,_RNvNtNtCs3I23rWd8G42_16syslog_generator9generator6config21default_shutdown_mode
FN:420,_RNvNtNtCs3I23rWd8G42_16syslog_generator9generator6config22load_profile_from_path
FN:391,_RNvNtNtCs3I23rWd8G42_16syslog_generator9generator6config26load_profile_from_json_str
FN:403,_RNvNtNtCs3I23rWd8G42_16syslog_generator9generator6config26load_profile_from_yaml_str
FN:241,_RNvNtNtCs3I23rWd8G42_16syslog_generator9generator6config35default_shutdown_drain_timeout_secs
FN:119,_RNvXNtNtCs3I23rWd8G42_16syslog_generator9generator6configNtB2_12TargetConfigNtNtCsl8K0bEFm1U0_4core7default7Default7default
FN:231,_RNvXs0_NtNtCs3I23rWd8G42_16syslog_generator9generator6configNtB5_14ShutdownConfigNtNtCsl8K0bEFm1U0_4core7default7Default7default
FN:376,_RNvXs2_NtNtCs3I23rWd8G42_16syslog_generator9generator6configNtB5_7ProfileNtNtCsl8K0bEFm1U0_4core7default7Default7default
FN:194,_RNvXs_NtNtCs3I23rWd8G42_16syslog_generator9generator6configNtB4_12SyslogConfigNtNtCsl8K0bEFm1U0_4core7default7Default7default
FN:480,_RNvNtNtNtCs3I23rWd8G42_16syslog_generator9generator6config5tests12minimal_yaml
FN:562,_RNvNtNtNtCs3I23rWd8G42_16syslog_generator9generator6config5testss_34load_profile_from_json_still_works
FN:499,_RNvNtNtNtCs3I23rWd8G42_16syslog_generator9generator6config5testss_41load_profile_from_yaml_str_parses_minimal
FN:574,_RNvNtNtNtCs3I23rWd8G42_16syslog_generator9generator6config5testss_46load_profile_from_path_dispatches_by_extension
FN:619,_RNvNtNtNtCs3I23rWd8G42_16syslog_generator9generator6config5testss_48load_profile_from_path_io_error_for_missing_file
FN:512,_RNvNtNtNtCs3I23rWd8G42_16syslog_generator9generator6config5testss_50load_profile_from_yaml_str_parses_load_shape_burst
FN:551,_RNvNtNtNtCs3I23rWd8G42_16syslog_generator9generator6config5testss_55load_profile_from_yaml_str_reports_yaml_error_with_path
FN:424,_RNCNvNtNtCs3I23rWd8G42_16syslog_generator9generator6config22load_profile_from_path0B7_
FN:451,_RNCNvNtNtCs3I23rWd8G42_16syslog_generator9generator6config22load_profile_from_paths0_0B7_
FN:456,_RNCNvNtNtCs3I23rWd8G42_16syslog_generator9generator6config22load_profile_from_paths1_0B7_
FN:461,_RNCNvNtNtCs3I23rWd8G42_16syslog_generator9generator6config22load_profile_from_paths2_0B7_
FN:445,_RNCNvNtNtCs3I23rWd8G42_16syslog_generator9generator6config22load_profile_from_paths_0B7_
FN:393,_RNCNvNtNtCs3I23rWd8G42_16syslog_generator9generator6config26load_profile_from_json_str0B7_
FN:405,_RNCNvNtNtCs3I23rWd8G42_16syslog_generator9generator6config26load_profile_from_yaml_str0B7_
FNDA:3769,_RNvMs1_NtNtCsdYvAweMv4CD_16syslog_generator9generator6configNtB5_5Phase11format_type
FNDA:339,_RNvNtNtCsdYvAweMv4CD_16syslog_generator9generator6config11default_nil
FNDA:90,_RNvNtNtCsdYvAweMv4CD_16syslog_generator9generator6config14default_weight
FNDA:100,_RNvNtNtCsdYvAweMv4CD_16syslog_generator9generator6config15default_framing
FNDA:102,_RNvNtNtCsdYvAweMv4CD_16syslog_generator9generator6config16default_app_name
FNDA:102,_RNvNtNtCsdYvAweMv4CD_16syslog_generator9generator6config16default_facility
FNDA:102,_RNvNtNtCsdYvAweMv4CD_16syslog_generator9generator6config16default_hostname
FNDA:102,_RNvNtNtCsdYvAweMv4CD_16syslog_generator9generator6config16default_severity
FNDA:92,_RNvNtNtCsdYvAweMv4CD_16syslog_generator9generator6config19default_connections
FNDA:18,_RNvNtNtCsdYvAweMv4CD_16syslog_generator9generator6config20default_distribution
FNDA:58,_RNvNtNtCsdYvAweMv4CD_16syslog_generator9generator6config21default_shutdown_mode
FNDA:44,_RNvNtNtCsdYvAweMv4CD_16syslog_generator9generator6config22load_profile_from_path
FNDA:2,_RNvNtNtCsdYvAweMv4CD_16syslog_generator9generator6config26load_profile_from_json_str
FNDA:0,_RNvNtNtCsdYvAweMv4CD_16syslog_generator9generator6config26load_profile_from_yaml_str
FNDA:58,_RNvNtNtCsdYvAweMv4CD_16syslog_generator9generator6config35default_shutdown_drain_timeout_secs
FNDA:61,_RNvXNtNtCsdYvAweMv4CD_16syslog_generator9generator6configNtB2_12TargetConfigNtNtCsl8K0bEFm1U0_4core7default7Default7default
FNDA:58,_RNvXs0_NtNtCsdYvAweMv4CD_16syslog_generator9generator6configNtB5_14ShutdownConfigNtNtCsl8K0bEFm1U0_4core7default7Default7default
FNDA:12,_RNvXs2_NtNtCsdYvAweMv4CD_16syslog_generator9generator6configNtB5_7ProfileNtNtCsl8K0bEFm1U0_4core7default7Default7default
FNDA:102,_RNvXs_NtNtCsdYvAweMv4CD_16syslog_generator9generator6configNtB4_12SyslogConfigNtNtCsl8K0bEFm1U0_4core7default7Default7default
FNDA:44,_RNCNvNtNtCsdYvAweMv4CD_16syslog_generator9generator6config22load_profile_from_path0B7_
FNDA:0,_RNCNvNtNtCsdYvAweMv4CD_16syslog_generator9generator6config22load_profile_from_paths0_0B7_
FNDA:1,_RNCNvNtNtCsdYvAweMv4CD_16syslog_generator9generator6config22load_profile_from_paths1_0B7_
FNDA:0,_RNCNvNtNtCsdYvAweMv4CD_16syslog_generator9generator6config22load_profile_from_paths2_0B7_
FNDA:1,_RNCNvNtNtCsdYvAweMv4CD_16syslog_generator9generator6config22load_profile_from_paths_0B7_
FNDA:0,_RNCNvNtNtCsdYvAweMv4CD_16syslog_generator9generator6config26load_profile_from_json_str0B7_
FNDA:0,_RNCNvNtNtCsdYvAweMv4CD_16syslog_generator9generator6config26load_profile_from_yaml_str0B7_
FNDA:55,_RNvMs1_NtNtCs3I23rWd8G42_16syslog_generator9generator6configNtB5_5Phase11format_type
FNDA:285,_RNvNtNtCs3I23rWd8G42_16syslog_generator9generator6config11default_nil
FNDA:75,_RNvNtNtCs3I23rWd8G42_16syslog_generator9generator6config14default_weight
FNDA:75,_RNvNtNtCs3I23rWd8G42_16syslog_generator9generator6config15default_framing
FNDA:95,_RNvNtNtCs3I23rWd8G42_16syslog_generator9generator6config16default_app_name
FNDA:95,_RNvNtNtCs3I23rWd8G42_16syslog_generator9generator6config16default_facility
FNDA:95,_RNvNtNtCs3I23rWd8G42_16syslog_generator9generator6config16default_hostname
FNDA:95,_RNvNtNtCs3I23rWd8G42_16syslog_generator9generator6config16default_severity
FNDA:75,_RNvNtNtCs3I23rWd8G42_16syslog_generator9generator6config19default_connections
FNDA:4,_RNvNtNtCs3I23rWd8G42_16syslog_generator9generator6config20default_distribution
FNDA:63,_RNvNtNtCs3I23rWd8G42_16syslog_generator9generator6config21default_shutdown_mode
FNDA:5,_RNvNtNtCs3I23rWd8G42_16syslog_generator9generator6config22load_profile_from_path
FNDA:1,_RNvNtNtCs3I23rWd8G42_16syslog_generator9generator6config26load_profile_from_json_str
FNDA:4,_RNvNtNtCs3I23rWd8G42_16syslog_generator9generator6config26load_profile_from_yaml_str
FNDA:63,_RNvNtNtCs3I23rWd8G42_16syslog_generator9generator6config35default_shutdown_drain_timeout_secs
FNDA:69,_RNvXNtNtCs3I23rWd8G42_16syslog_generator9generator6configNtB2_12TargetConfigNtNtCsl8K0bEFm1U0_4core7default7Default7default
FNDA:63,_RNvXs0_NtNtCs3I23rWd8G42_16syslog_generator9generator6configNtB5_14ShutdownConfigNtNtCsl8K0bEFm1U0_4core7default7Default7default
FNDA:4,_RNvXs2_NtNtCs3I23rWd8G42_16syslog_generator9generator6configNtB5_7ProfileNtNtCsl8K0bEFm1U0_4core7default7Default7default
FNDA:95,_RNvXs_NtNtCs3I23rWd8G42_16syslog_generator9generator6configNtB4_12SyslogConfigNtNtCsl8K0bEFm1U0_4core7default7Default7default
FNDA:3,_RNvNtNtNtCs3I23rWd8G42_16syslog_generator9generator6config5tests12minimal_yaml
FNDA:1,_RNvNtNtNtCs3I23rWd8G42_16syslog_generator9generator6config5testss_34load_profile_from_json_still_works
FNDA:1,_RNvNtNtNtCs3I23rWd8G42_16syslog_generator9generator6config5testss_41load_profile_from_yaml_str_parses_minimal
FNDA:1,_RNvNtNtNtCs3I23rWd8G42_16syslog_generator9generator6config5testss_46load_profile_from_path_dispatches_by_extension
FNDA:1,_RNvNtNtNtCs3I23rWd8G42_16syslog_generator9generator6config5testss_48load_profile_from_path_io_error_for_missing_file
FNDA:1,_RNvNtNtNtCs3I23rWd8G42_16syslog_generator9generator6config5testss_50load_profile_from_yaml_str_parses_load_shape_burst
FNDA:1,_RNvNtNtNtCs3I23rWd8G42_16syslog_generator9generator6config5testss_55load_profile_from_yaml_str_reports_yaml_error_with_path
FNDA:5,_RNCNvNtNtCs3I23rWd8G42_16syslog_generator9generator6config22load_profile_from_path0B7_
FNDA:0,_RNCNvNtNtCs3I23rWd8G42_16syslog_generator9generator6config22load_profile_from_paths0_0B7_
FNDA:0,_RNCNvNtNtCs3I23rWd8G42_16syslog_generator9generator6config22load_profile_from_paths1_0B7_
FNDA:0,_RNCNvNtNtCs3I23rWd8G42_16syslog_generator9generator6config22load_profile_from_paths2_0B7_
FNDA:1,_RNCNvNtNtCs3I23rWd8G42_16syslog_generator9generator6config22load_profile_from_paths_0B7_
FNDA:0,_RNCNvNtNtCs3I23rWd8G42_16syslog_generator9generator6config26load_profile_from_json_str0B7_
FNDA:1,_RNCNvNtNtCs3I23rWd8G42_16syslog_generator9generator6config26load_profile_from_yaml_str0B7_
FNF:33
FNH:30
DA:119,130
DA:120,130
DA:121,130
DA:122,130
DA:123,130
DA:124,130
DA:125,130
DA:126,130
DA:127,130
DA:128,130
DA:129,130
DA:130,130
DA:131,130
DA:132,130
DA:133,130
DA:134,130
DA:135,130
DA:136,130
DA:137,130
DA:138,130
DA:139,130
DA:140,130
DA:141,130
DA:142,130
DA:143,130
DA:144,130
DA:145,130
DA:146,130
DA:147,130
DA:148,130
DA:149,130
DA:150,130
DA:151,130
DA:152,130
DA:153,130
DA:155,167
DA:156,167
DA:157,167
DA:158,165
DA:159,165
DA:160,165
DA:161,175
DA:162,175
DA:163,175
DA:194,197
DA:195,197
DA:196,197
DA:197,197
DA:198,197
DA:199,197
DA:200,197
DA:201,197
DA:202,197
DA:203,197
DA:204,197
DA:205,197
DA:207,197
DA:208,197
DA:209,197
DA:210,197
DA:211,197
DA:212,197
DA:213,197
DA:214,197
DA:215,197
DA:216,197
DA:217,197
DA:218,197
DA:219,624
DA:220,624
DA:221,624
DA:231,121
DA:232,121
DA:233,121
DA:234,121
DA:235,121
DA:236,121
DA:238,121
DA:239,121
DA:240,121
DA:241,121
DA:242,121
DA:243,121
DA:352,3824
DA:353,3824
DA:354,3824
DA:356,22
DA:357,22
DA:358,22
DA:376,16
DA:377,16
DA:378,16
DA:379,16
DA:380,16
DA:381,16
DA:382,16
DA:383,16
DA:384,16
DA:391,3
DA:392,3
DA:393,0
DA:394,0
DA:395,0
DA:396,3
DA:403,4
DA:404,4
DA:405,1
DA:406,1
DA:407,1
DA:408,4
DA:420,49
DA:421,49
DA:422,49
DA:423,49
DA:424,49
DA:425,49
DA:427,49
DA:428,49
DA:429,17
DA:430,2
DA:431,2
DA:432,2
DA:433,2
DA:434,2
DA:437,0
DA:438,0
DA:439,0
DA:440,0
DA:444,47
DA:445,2
DA:446,2
DA:447,2
DA:448,45
DA:449,45
DA:450,45
DA:451,0
DA:452,0
DA:453,0
DA:454,45
DA:455,45
DA:456,1
DA:457,1
DA:458,1
DA:459,15
DA:460,15
DA:461,0
DA:462,0
DA:463,0
DA:468,0
DA:469,0
DA:470,0
DA:471,0
DA:473,49
DA:480,3
DA:481,3
DA:482,3
DA:483,3
DA:484,3
DA:485,3
DA:486,3
DA:487,3
DA:488,3
DA:489,3
DA:490,3
DA:491,3
DA:492,3
DA:493,3
DA:494,3
DA:495,3
DA:496,3
DA:499,1
DA:500,1
DA:501,1
DA:502,1
DA:503,1
DA:504,1
DA:505,1
DA:506,1
DA:507,1
DA:508,1
DA:509,1
DA:512,1
DA:513,1
DA:514,1
DA:515,1
DA:516,1
DA:517,1
DA:518,1
DA:519,1
DA:520,1
DA:521,1
DA:522,1
DA:523,1
DA:524,1
DA:525,1
DA:526,1
DA:527,1
DA:528,1
DA:529,1
DA:530,1
DA:531,1
DA:532,1
DA:533,1
DA:534,1
DA:536,1
DA:537,1
DA:538,1
DA:539,1
DA:541,1
DA:542,1
DA:543,1
DA:544,1
DA:546,0
DA:548,1
DA:551,1
DA:553,1
DA:554,1
DA:555,1
DA:556,1
DA:557,0
DA:559,1
DA:562,1
DA:563,1
DA:564,1
DA:565,1
DA:566,1
DA:567,1
DA:568,1
DA:569,1
DA:570,1
DA:571,1
DA:574,1
DA:575,1
DA:576,1
DA:577,1
DA:578,1
DA:579,1
DA:581,1
DA:582,1
DA:583,1
DA:584,1
DA:585,1
DA:586,1
DA:587,1
DA:588,1
DA:589,3
DA:590,3
DA:591,3
DA:592,3
DA:593,3
DA:595,1
DA:596,1
DA:597,1
DA:598,1
DA:599,1
DA:600,1
DA:601,1
DA:603,1
DA:604,1
DA:605,1
DA:606,1
DA:608,0
DA:612,3
DA:613,3
DA:614,3
DA:615,1
DA:616,1
DA:619,1
DA:620,1
DA:621,1
DA:622,1
DA:623,1
BRF:0
BRH:0
LF:275
LH:254
end_of_record
SF:/private/tmp/pr17a-worktree/src/generator/core.rs
FN:418,_RNvMNtNtCsdYvAweMv4CD_16syslog_generator9generator4coreNtB2_12PhaseContext7resolve
FN:630,_RNvNtNtCsdYvAweMv4CD_16syslog_generator9generator4core11finish_bodyB5_
FN:140,_RNvNtNtCsdYvAweMv4CD_16syslog_generator9generator4core11load_schema
FN:1215,_RNvNtNtCsdYvAweMv4CD_16syslog_generator9generator4core11run_profile
FN:665,_RNvNtNtCsdYvAweMv4CD_16syslog_generator9generator4core11wrap_syslogB5_
FN:116,_RNvNtNtCsdYvAweMv4CD_16syslog_generator9generator4core14default_values
FN:131,_RNvNtNtCsdYvAweMv4CD_16syslog_generator9generator4core14load_templates
FN:737,_RNvNtNtCsdYvAweMv4CD_16syslog_generator9generator4core15run_phase_multi
FN:565,_RNvNtNtCsdYvAweMv4CD_16syslog_generator9generator4core16gen_schema_field
FN:149,_RNvNtNtCsdYvAweMv4CD_16syslog_generator9generator4core16generate_message
FN:30,_RNvNtNtCsdYvAweMv4CD_16syslog_generator9generator4core17create_dispatcher
FN:59,_RNvNtNtCsdYvAweMv4CD_16syslog_generator9generator4core19default_values_intoB5_
FN:546,_RNvNtNtCsdYvAweMv4CD_16syslog_generator9generator4core22pick_template_compiledB5_
FN:604,_RNvNtNtCsdYvAweMv4CD_16syslog_generator9generator4core24resolve_correlated_field
FN:258,_RNvNtNtCsdYvAweMv4CD_16syslog_generator9generator4core28generate_message_with_formatB5_
FN:160,_RNvNtNtCsdYvAweMv4CD_16syslog_generator9generator4core34generate_message_with_format_inner
FN:287,_RNvNtNtCsdYvAweMv4CD_16syslog_generator9generator4core35generate_message_with_format_cachedB5_
FN:1255,_RNCNCNCNvNtNtCsdYvAweMv4CD_16syslog_generator9generator4core11run_profile0s_00Bb_
FN:808,_RNCNCNCNvNtNtCsdYvAweMv4CD_16syslog_generator9generator4core15run_phase_multi000Bb_
FN:809,_RNCNCNCNvNtNtCsdYvAweMv4CD_16syslog_generator9generator4core15run_phase_multi00s_0Bb_
FN:1233,_RNCNCNvNtNtCsdYvAweMv4CD_16syslog_generator9generator4core11run_profile00B9_
FN:1237,_RNCNCNvNtNtCsdYvAweMv4CD_16syslog_generator9generator4core11run_profile0s_0B9_
FN:806,_RNCNCNvNtNtCsdYvAweMv4CD_16syslog_generator9generator4core15run_phase_multi00B9_
FN:1045,_RNCNCNvNtNtCsdYvAweMv4CD_16syslog_generator9generator4core15run_phase_multi0s0_0B9_
FN:1039,_RNCNCNvNtNtCsdYvAweMv4CD_16syslog_generator9generator4core15run_phase_multi0s_0B9_
FN:459,_RNCNvMNtNtCsdYvAweMv4CD_16syslog_generator9generator4coreNtB4_12PhaseContext7resolve0B8_
FN:484,_RNCNvMNtNtCsdYvAweMv4CD_16syslog_generator9generator4coreNtB4_12PhaseContext7resolves0_0B8_
FN:465,_RNCNvMNtNtCsdYvAweMv4CD_16syslog_generator9generator4coreNtB4_12PhaseContext7resolves_0B8_
FN:1215,_RNCNvNtNtCsdYvAweMv4CD_16syslog_generator9generator4core11run_profile0B7_
FN:125,_RNCNvNtNtCsdYvAweMv4CD_16syslog_generator9generator4core14default_values0B7_
FN:744,_RNCNvNtNtCsdYvAweMv4CD_16syslog_generator9generator4core15run_phase_multi0B7_
FN:610,_RNCNvNtNtCsdYvAweMv4CD_16syslog_generator9generator4core24resolve_correlated_field0B7_
FN:180,_RNCNvNtNtCsdYvAweMv4CD_16syslog_generator9generator4core34generate_message_with_format_inner0B7_
FN:219,_RNCNvNtNtCsdYvAweMv4CD_16syslog_generator9generator4core34generate_message_with_format_inners_0B7_
FN:301,_RNCNvNtNtCsdYvAweMv4CD_16syslog_generator9generator4core35generate_message_with_format_cached0B7_
FN:338,_RNCNvNtNtCsdYvAweMv4CD_16syslog_generator9generator4core35generate_message_with_format_cacheds_0B7_
FN:1215,_RNvNtNtCs3I23rWd8G42_16syslog_generator9generator4core11run_profile
FN:1255,_RNCNCNCNvNtNtCs3I23rWd8G42_16syslog_generator9generator4core11run_profile0s_00Bb_
FN:808,_RNCNCNCNvNtNtCs3I23rWd8G42_16syslog_generator9generator4core15run_phase_multi000Bb_
FN:809,_RNCNCNCNvNtNtCs3I23rWd8G42_16syslog_generator9generator4core15run_phase_multi00s_0Bb_
FN:1233,_RNCNCNvNtNtCs3I23rWd8G42_16syslog_generator9generator4core11run_profile00B9_
FN:1237,_RNCNCNvNtNtCs3I23rWd8G42_16syslog_generator9generator4core11run_profile0s_0B9_
FN:806,_RNCNCNvNtNtCs3I23rWd8G42_16syslog_generator9generator4core15run_phase_multi00B9_
FN:1045,_RNCNCNvNtNtCs3I23rWd8G42_16syslog_generator9generator4core15run_phase_multi0s0_0B9_
FN:1039,_RNCNCNvNtNtCs3I23rWd8G42_16syslog_generator9generator4core15run_phase_multi0s_0B9_
FN:459,_RNCNvMNtNtCs3I23rWd8G42_16syslog_generator9generator4coreNtB4_12PhaseContext7resolve0B8_
FN:484,_RNCNvMNtNtCs3I23rWd8G42_16syslog_generator9generator4coreNtB4_12PhaseContext7resolves0_0B8_
FN:465,_RNCNvMNtNtCs3I23rWd8G42_16syslog_generator9generator4coreNtB4_12PhaseContext7resolves_0B8_
FN:1215,_RNCNvNtNtCs3I23rWd8G42_16syslog_generator9generator4core11run_profile0B7_
FN:125,_RNCNvNtNtCs3I23rWd8G42_16syslog_generator9generator4core14default_values0B7_
FN:744,_RNCNvNtNtCs3I23rWd8G42_16syslog_generator9generator4core15run_phase_multi0B7_
FN:610,_RNCNvNtNtCs3I23rWd8G42_16syslog_generator9generator4core24resolve_correlated_field0B7_
FN:180,_RNCNvNtNtCs3I23rWd8G42_16syslog_generator9generator4core34generate_message_with_format_inner0B7_
FN:219,_RNCNvNtNtCs3I23rWd8G42_16syslog_generator9generator4core34generate_message_with_format_inners_0B7_
FN:301,_RNCNvNtNtCs3I23rWd8G42_16syslog_generator9generator4core35generate_message_with_format_cached0B7_
FN:338,_RNCNvNtNtCs3I23rWd8G42_16syslog_generator9generator4core35generate_message_with_format_cacheds_0B7_
FN:418,_RNvMNtNtCs3I23rWd8G42_16syslog_generator9generator4coreNtB2_12PhaseContext7resolve
FN:630,_RNvNtNtCs3I23rWd8G42_16syslog_generator9generator4core11finish_bodyB5_
FN:140,_RNvNtNtCs3I23rWd8G42_16syslog_generator9generator4core11load_schema
FN:665,_RNvNtNtCs3I23rWd8G42_16syslog_generator9generator4core11wrap_syslogB5_
FN:116,_RNvNtNtCs3I23rWd8G42_16syslog_generator9generator4core14default_values
FN:131,_RNvNtNtCs3I23rWd8G42_16syslog_generator9generator4core14load_templates
FN:737,_RNvNtNtCs3I23rWd8G42_16syslog_generator9generator4core15run_phase_multi
FN:565,_RNvNtNtCs3I23rWd8G42_16syslog_generator9generator4core16gen_schema_field
FN:149,_RNvNtNtCs3I23rWd8G42_16syslog_generator9generator4core16generate_message
FN:30,_RNvNtNtCs3I23rWd8G42_16syslog_generator9generator4core17create_dispatcher
FN:59,_RNvNtNtCs3I23rWd8G42_16syslog_generator9generator4core19default_values_intoB5_
FN:546,_RNvNtNtCs3I23rWd8G42_16syslog_generator9generator4core22pick_template_compiledB5_
FN:604,_RNvNtNtCs3I23rWd8G42_16syslog_generator9generator4core24resolve_correlated_field
FN:258,_RNvNtNtCs3I23rWd8G42_16syslog_generator9generator4core28generate_message_with_formatB5_
FN:160,_RNvNtNtCs3I23rWd8G42_16syslog_generator9generator4core34generate_message_with_format_inner
FN:287,_RNvNtNtCs3I23rWd8G42_16syslog_generator9generator4core35generate_message_with_format_cachedB5_
FN:1709,_RNCNvNtNtNtCs3I23rWd8G42_16syslog_generator9generator4core5testss_46phase6_generate_message_with_schema_raw_format0B9_
FN:1747,_RNCNvNtNtNtCs3I23rWd8G42_16syslog_generator9generator4core5testss_47phase6_run_phase_multi_propagates_resolve_error0B9_
FN:1776,_RNCNvNtNtNtCs3I23rWd8G42_16syslog_generator9generator4core5testss_50phase6_run_phase_multi_file_target_writes_messages0B9_
FN:1671,_RNCNvNtNtNtCs3I23rWd8G42_16syslog_generator9generator4core5testss_52phase6_generate_message_with_schema_renders_template0B9_
FN:1497,_RNvNtNtNtCs3I23rWd8G42_16syslog_generator9generator4core5testss_26create_dispatcher_weighted
FN:1350,_RNvNtNtNtCs3I23rWd8G42_16syslog_generator9generator4core5testss_33generate_message_seed_determinism
FN:1515,_RNvNtNtNtCs3I23rWd8G42_16syslog_generator9generator4core5testss_33load_profile_from_yaml_str_simple
FN:1595,_RNvNtNtNtCs3I23rWd8G42_16syslog_generator9generator4core5testss_39phase6_load_schema_no_file_returns_none
FN:1483,_RNvNtNtNtCs3I23rWd8G42_16syslog_generator9generator4core5testss_41create_dispatcher_default_returns_indices
FN:1297,_RNvNtNtNtCs3I23rWd8G42_16syslog_generator9generator4core5testss_41generate_message_legacy_rfc5424_with_seed
FN:1470,_RNvNtNtNtCs3I23rWd8G42_16syslog_generator9generator4core5testss_41pick_template_compiled_empty_returns_none
FN:1330,_RNvNtNtNtCs3I23rWd8G42_16syslog_generator9generator4core5testss_42generate_message_default_format_is_rfc5424
FN:1620,_RNvNtNtNtCs3I23rWd8G42_16syslog_generator9generator4core5testss_42phase6_load_schema_valid_json_returns_some
FN:1423,_RNvNtNtNtCs3I23rWd8G42_16syslog_generator9generator4core5testss_43phase_context_does_not_cache_dynamic_procid
FN:1456,_RNvNtNtNtCs3I23rWd8G42_16syslog_generator9generator4core5testss_43pick_template_compiled_single_returns_first
FN:1381,_RNvNtNtNtCs3I23rWd8G42_16syslog_generator9generator4core5testss_45phase_context_resolve_compiles_templates_once
FN:1689,_RNvNtNtNtCs3I23rWd8G42_16syslog_generator9generator4core5testss_46phase6_generate_message_with_schema_raw_format
FN:1747,_RNvNtNtNtCs3I23rWd8G42_16syslog_generator9generator4core5testss_47phase6_run_phase_multi_propagates_resolve_error
FN:1607,_RNvNtNtNtCs3I23rWd8G42_16syslog_generator9generator4core5testss_48phase6_load_schema_missing_file_returns_io_error
FN:1776,_RNvNtNtNtCs3I23rWd8G42_16syslog_generator9generator4core5testss_50phase6_run_phase_multi_file_target_writes_messages
FN:1555,_RNvNtNtNtCs3I23rWd8G42_16syslog_generator9generator4core5testss_51phase6_load_templates_missing_file_returns_io_error
FN:1641,_RNvNtNtNtCs3I23rWd8G42_16syslog_generator9generator4core5testss_52phase6_generate_message_with_schema_renders_template
FN:1542,_RNvNtNtNtCs3I23rWd8G42_16syslog_generator9generator4core5testss_53phase6_load_templates_no_file_returns_phase_templates
FN:1576,_RNvNtNtNtCs3I23rWd8G42_16syslog_generator9generator4core5testss_54phase6_load_templates_invalid_json_returns_parse_error
FN:1726,_RNvNtNtNtCs3I23rWd8G42_16syslog_generator9generator4core5testss_56phase6_generate_message_protobuf_none_yields_empty_bytes
FNDA:3571,_RNvMNtNtCsdYvAweMv4CD_16syslog_generator9generator4coreNtB2_12PhaseContext7resolve
FNDA:6650,_RNvNtNtCsdYvAweMv4CD_16syslog_generator9generator4core11finish_bodyB5_
FNDA:0,_RNvNtNtCsdYvAweMv4CD_16syslog_generator9generator4core11load_schema
FNDA:25,_RNvNtNtCsdYvAweMv4CD_16syslog_generator9generator4core11run_profile
FNDA:6650,_RNvNtNtCsdYvAweMv4CD_16syslog_generator9generator4core11wrap_syslogB5_
FNDA:3546,_RNvNtNtCsdYvAweMv4CD_16syslog_generator9generator4core14default_values
FNDA:0,_RNvNtNtCsdYvAweMv4CD_16syslog_generator9generator4core14load_templates
FNDA:25,_RNvNtNtCsdYvAweMv4CD_16syslog_generator9generator4core15run_phase_multi
FNDA:3676,_RNvNtNtCsdYvAweMv4CD_16syslog_generator9generator4core16gen_schema_field
FNDA:3546,_RNvNtNtCsdYvAweMv4CD_16syslog_generator9generator4core16generate_message
FNDA:26,_RNvNtNtCsdYvAweMv4CD_16syslog_generator9generator4core17create_dispatcher
FNDA:6650,_RNvNtNtCsdYvAweMv4CD_16syslog_generator9generator4core19default_values_intoB5_
FNDA:3228,_RNvNtNtCsdYvAweMv4CD_16syslog_generator9generator4core22pick_template_compiledB5_
FNDA:201,_RNvNtNtCsdYvAweMv4CD_16syslog_generator9generator4core24resolve_correlated_field
FNDA:3104,_RNvNtNtCsdYvAweMv4CD_16syslog_generator9generator4core28generate_message_with_formatB5_
FNDA:3546,_RNvNtNtCsdYvAweMv4CD_16syslog_generator9generator4core34generate_message_with_format_inner
FNDA:3104,_RNvNtNtCsdYvAweMv4CD_16syslog_generator9generator4core35generate_message_with_format_cachedB5_
FNDA:0,_RNCNCNCNvNtNtCsdYvAweMv4CD_16syslog_generator9generator4core11run_profile0s_00Bb_
FNDA:1,_RNCNCNCNvNtNtCsdYvAweMv4CD_16syslog_generator9generator4core15run_phase_multi000Bb_
FNDA:0,_RNCNCNCNvNtNtCsdYvAweMv4CD_16syslog_generator9generator4core15run_phase_multi00s_0Bb_
FNDA:24,_RNCNCNvNtNtCsdYvAweMv4CD_16syslog_generator9generator4core11run_profile00B9_
FNDA:24,_RNCNCNvNtNtCsdYvAweMv4CD_16syslog_generator9generator4core11run_profile0s_0B9_
FNDA:1,_RNCNCNvNtNtCsdYvAweMv4CD_16syslog_generator9generator4core15run_phase_multi00B9_
FNDA:8,_RNCNCNvNtNtCsdYvAweMv4CD_16syslog_generator9generator4core15run_phase_multi0s0_0B9_
FNDA:4,_RNCNCNvNtNtCsdYvAweMv4CD_16syslog_generator9generator4core15run_phase_multi0s_0B9_
FNDA:32139,_RNCNvMNtNtCsdYvAweMv4CD_16syslog_generator9generator4coreNtB4_12PhaseContext7resolve0B8_
FNDA:17855,_RNCNvMNtNtCsdYvAweMv4CD_16syslog_generator9generator4coreNtB4_12PhaseContext7resolves0_0B8_
FNDA:299,_RNCNvMNtNtCsdYvAweMv4CD_16syslog_generator9generator4coreNtB4_12PhaseContext7resolves_0B8_
FNDA:25,_RNCNvNtNtCsdYvAweMv4CD_16syslog_generator9generator4core11run_profile0B7_
FNDA:25,_RNCNvNtNtCsdYvAweMv4CD_16syslog_generator9generator4core14default_values0B7_
FNDA:25,_RNCNvNtNtCsdYvAweMv4CD_16syslog_generator9generator4core15run_phase_multi0B7_
FNDA:201,_RNCNvNtNtCsdYvAweMv4CD_16syslog_generator9generator4core24resolve_correlated_field0B7_
FNDA:644,_RNCNvNtNtCsdYvAweMv4CD_16syslog_generator9generator4core34generate_message_with_format_inner0B7_
FNDA:124,_RNCNvNtNtCsdYvAweMv4CD_16syslog_generator9generator4core34generate_message_with_format_inners_0B7_
FNDA:0,_RNCNvNtNtCsdYvAweMv4CD_16syslog_generator9generator4core35generate_message_with_format_cached0B7_
FNDA:3104,_RNCNvNtNtCsdYvAweMv4CD_16syslog_generator9generator4core35generate_message_with_format_cacheds_0B7_
FNDA:0,_RNvNtNtCs3I23rWd8G42_16syslog_generator9generator4core11run_profile
FNDA:0,_RNCNCNCNvNtNtCs3I23rWd8G42_16syslog_generator9generator4core11run_profile0s_00Bb_
FNDA:0,_RNCNCNCNvNtNtCs3I23rWd8G42_16syslog_generator9generator4core15run_phase_multi000Bb_
FNDA:0,_RNCNCNCNvNtNtCs3I23rWd8G42_16syslog_generator9generator4core15run_phase_multi00s_0Bb_
FNDA:0,_RNCNCNvNtNtCs3I23rWd8G42_16syslog_generator9generator4core11run_profile00B9_
FNDA:0,_RNCNCNvNtNtCs3I23rWd8G42_16syslog_generator9generator4core11run_profile0s_0B9_
FNDA:0,_RNCNCNvNtNtCs3I23rWd8G42_16syslog_generator9generator4core15run_phase_multi00B9_
FNDA:1,_RNCNCNvNtNtCs3I23rWd8G42_16syslog_generator9generator4core15run_phase_multi0s0_0B9_
FNDA:0,_RNCNCNvNtNtCs3I23rWd8G42_16syslog_generator9generator4core15run_phase_multi0s_0B9_
FNDA:72,_RNCNvMNtNtCs3I23rWd8G42_16syslog_generator9generator4coreNtB4_12PhaseContext7resolve0B8_
FNDA:40,_RNCNvMNtNtCs3I23rWd8G42_16syslog_generator9generator4coreNtB4_12PhaseContext7resolves0_0B8_
FNDA:9,_RNCNvMNtNtCs3I23rWd8G42_16syslog_generator9generator4coreNtB4_12PhaseContext7resolves_0B8_
FNDA:0,_RNCNvNtNtCs3I23rWd8G42_16syslog_generator9generator4core11run_profile0B7_
FNDA:2,_RNCNvNtNtCs3I23rWd8G42_16syslog_generator9generator4core14default_values0B7_
FNDA:2,_RNCNvNtNtCs3I23rWd8G42_16syslog_generator9generator4core15run_phase_multi0B7_
FNDA:0,_RNCNvNtNtCs3I23rWd8G42_16syslog_generator9generator4core24resolve_correlated_field0B7_
FNDA:0,_RNCNvNtNtCs3I23rWd8G42_16syslog_generator9generator4core34generate_message_with_format_inner0B7_
FNDA:4,_RNCNvNtNtCs3I23rWd8G42_16syslog_generator9generator4core34generate_message_with_format_inners_0B7_
FNDA:0,_RNCNvNtNtCs3I23rWd8G42_16syslog_generator9generator4core35generate_message_with_format_cached0B7_
FNDA:3,_RNCNvNtNtCs3I23rWd8G42_16syslog_generator9generator4core35generate_message_with_format_cacheds_0B7_
FNDA:9,_RNvMNtNtCs3I23rWd8G42_16syslog_generator9generator4coreNtB2_12PhaseContext7resolve
FNDA:8,_RNvNtNtCs3I23rWd8G42_16syslog_generator9generator4core11finish_bodyB5_
FNDA:3,_RNvNtNtCs3I23rWd8G42_16syslog_generator9generator4core11load_schema
FNDA:8,_RNvNtNtCs3I23rWd8G42_16syslog_generator9generator4core11wrap_syslogB5_
FNDA:4,_RNvNtNtCs3I23rWd8G42_16syslog_generator9generator4core14default_values
FNDA:3,_RNvNtNtCs3I23rWd8G42_16syslog_generator9generator4core14load_templates
FNDA:2,_RNvNtNtCs3I23rWd8G42_16syslog_generator9generator4core15run_phase_multi
FNDA:1,_RNvNtNtCs3I23rWd8G42_16syslog_generator9generator4core16gen_schema_field
FNDA:4,_RNvNtNtCs3I23rWd8G42_16syslog_generator9generator4core16generate_message
FNDA:4,_RNvNtNtCs3I23rWd8G42_16syslog_generator9generator4core17create_dispatcher
FNDA:9,_RNvNtNtCs3I23rWd8G42_16syslog_generator9generator4core19default_values_intoB5_
FNDA:9,_RNvNtNtCs3I23rWd8G42_16syslog_generator9generator4core22pick_template_compiledB5_
FNDA:0,_RNvNtNtCs3I23rWd8G42_16syslog_generator9generator4core24resolve_correlated_field
FNDA:5,_RNvNtNtCs3I23rWd8G42_16syslog_generator9generator4core28generate_message_with_formatB5_
FNDA:4,_RNvNtNtCs3I23rWd8G42_16syslog_generator9generator4core34generate_message_with_format_inner
FNDA:5,_RNvNtNtCs3I23rWd8G42_16syslog_generator9generator4core35generate_message_with_format_cachedB5_
FNDA:9,_RNCNvNtNtNtCs3I23rWd8G42_16syslog_generator9generator4core5testss_46phase6_generate_message_with_schema_raw_format0B9_
FNDA:1,_RNCNvNtNtNtCs3I23rWd8G42_16syslog_generator9generator4core5testss_47phase6_run_phase_multi_propagates_resolve_error0B9_
FNDA:1,_RNCNvNtNtNtCs3I23rWd8G42_16syslog_generator9generator4core5testss_50phase6_run_phase_multi_file_target_writes_messages0B9_
FNDA:9,_RNCNvNtNtNtCs3I23rWd8G42_16syslog_generator9generator4core5testss_52phase6_generate_message_with_schema_renders_template0B9_
FNDA:1,_RNvNtNtNtCs3I23rWd8G42_16syslog_generator9generator4core5testss_26create_dispatcher_weighted
FNDA:1,_RNvNtNtNtCs3I23rWd8G42_16syslog_generator9generator4core5testss_33generate_message_seed_determinism
FNDA:1,_RNvNtNtNtCs3I23rWd8G42_16syslog_generator9generator4core5testss_33load_profile_from_yaml_str_simple
FNDA:1,_RNvNtNtNtCs3I23rWd8G42_16syslog_generator9generator4core5testss_39phase6_load_schema_no_file_returns_none
FNDA:1,_RNvNtNtNtCs3I23rWd8G42_16syslog_generator9generator4core5testss_41create_dispatcher_default_returns_indices
FNDA:1,_RNvNtNtNtCs3I23rWd8G42_16syslog_generator9generator4core5testss_41generate_message_legacy_rfc5424_with_seed
FNDA:1,_RNvNtNtNtCs3I23rWd8G42_16syslog_generator9generator4core5testss_41pick_template_compiled_empty_returns_none
FNDA:1,_RNvNtNtNtCs3I23rWd8G42_16syslog_generator9generator4core5testss_42generate_message_default_format_is_rfc5424
FNDA:1,_RNvNtNtNtCs3I23rWd8G42_16syslog_generator9generator4core5testss_42phase6_load_schema_valid_json_returns_some
FNDA:1,_RNvNtNtNtCs3I23rWd8G42_16syslog_generator9generator4core5testss_43phase_context_does_not_cache_dynamic_procid
FNDA:1,_RNvNtNtNtCs3I23rWd8G42_16syslog_generator9generator4core5testss_43pick_template_compiled_single_returns_first
FNDA:1,_RNvNtNtNtCs3I23rWd8G42_16syslog_generator9generator4core5testss_45phase_context_resolve_compiles_templates_once
FNDA:1,_RNvNtNtNtCs3I23rWd8G42_16syslog_generator9generator4core5testss_46phase6_generate_message_with_schema_raw_format
FNDA:1,_RNvNtNtNtCs3I23rWd8G42_16syslog_generator9generator4core5testss_47phase6_run_phase_multi_propagates_resolve_error
FNDA:1,_RNvNtNtNtCs3I23rWd8G42_16syslog_generator9generator4core5testss_48phase6_load_schema_missing_file_returns_io_error
FNDA:1,_RNvNtNtNtCs3I23rWd8G42_16syslog_generator9generator4core5testss_50phase6_run_phase_multi_file_target_writes_messages
FNDA:1,_RNvNtNtNtCs3I23rWd8G42_16syslog_generator9generator4core5testss_51phase6_load_templates_missing_file_returns_io_error
FNDA:1,_RNvNtNtNtCs3I23rWd8G42_16syslog_generator9generator4core5testss_52phase6_generate_message_with_schema_renders_template
FNDA:1,_RNvNtNtNtCs3I23rWd8G42_16syslog_generator9generator4core5testss_53phase6_load_templates_no_file_returns_phase_templates
FNDA:1,_RNvNtNtNtCs3I23rWd8G42_16syslog_generator9generator4core5testss_54phase6_load_templates_invalid_json_returns_parse_error
FNDA:1,_RNvNtNtNtCs3I23rWd8G42_16syslog_generator9generator4core5testss_56phase6_generate_message_protobuf_none_yields_empty_bytes
FNF:61
FNH:58
DA:30,30
DA:31,30
DA:32,30
DA:33,3
DA:34,8
DA:35,13
DA:36,13
DA:37,13
DA:39,3
DA:40,0
DA:42,3
DA:45,27
DA:47,30
DA:59,6659
DA:60,6659
DA:61,6659
DA:62,6659
DA:63,6659
DA:64,6659
DA:65,6659
DA:66,6659
DA:67,6659
DA:69,6659
DA:70,6659
DA:71,6659
DA:73,6659
DA:74,6659
DA:75,6659
DA:76,6659
DA:77,6659
DA:79,6659
DA:80,6659
DA:81,6659
DA:96,6659
DA:97,27
DA:99,243
DA:100,243
DA:101,70
DA:102,173
DA:108,59688
DA:109,59688
DA:110,59688
DA:113,6659
DA:114,6659
DA:116,3550
DA:117,3550
DA:118,3550
DA:119,3550
DA:120,3550
DA:121,3550
DA:125,3550
DA:126,3550
DA:127,3550
DA:128,3550
DA:129,3550
DA:131,3
DA:132,3
DA:133,2
DA:134,1
DA:135,0
DA:136,1
DA:137,1
DA:138,3
DA:140,3
DA:141,3
DA:142,2
DA:143,1
DA:144,1
DA:145,1
DA:146,1
DA:147,3
DA:149,3550
DA:154,3550
DA:155,3550
DA:156,3550
DA:160,3550
DA:161,3550
DA:162,3550
DA:163,3550
DA:164,3550
DA:167,3550
DA:168,3550
DA:169,3550
DA:179,3422
DA:180,3422
DA:181,3877
DA:182,3877
DA:183,3676
DA:184,3676
DA:185,3676
DA:187,3877
DA:188,3877
DA:189,201
DA:190,201
DA:191,3676
DA:193,3422
DA:194,3422
DA:198,3422
DA:199,3422
DA:200,3422
DA:201,3422
DA:202,3422
DA:203,3422
DA:204,3422
DA:205,3422
DA:206,3422
DA:207,3422
DA:208,0
DA:209,128
DA:211,128
DA:212,0
DA:214,128
DA:215,128
DA:216,128
DA:217,128
DA:219,128
DA:220,128
DA:222,128
DA:223,0
DA:224,0
DA:225,0
DA:226,0
DA:227,128
DA:228,128
DA:229,128
DA:230,128
DA:231,128
DA:232,128
DA:233,128
DA:234,128
DA:235,128
DA:236,128
DA:237,128
DA:238,128
DA:239,3550
DA:258,3109
DA:259,3109
DA:260,3109
DA:261,3109
DA:262,3109
DA:263,3109
DA:266,3109
DA:267,3109
DA:268,3109
DA:287,3109
DA:288,3109
DA:289,3109
DA:290,3109
DA:291,3109
DA:292,3109
DA:293,3109
DA:295,3109
DA:297,3109
DA:298,3109
DA:299,3109
DA:300,2
DA:301,2
DA:302,2
DA:303,1
DA:304,1
DA:305,1
DA:306,1
DA:308,2
DA:309,1
DA:310,0
DA:311,0
DA:312,1
DA:314,2
DA:315,2
DA:316,2
DA:317,2
DA:318,2
DA:319,2
DA:320,2
DA:321,2
DA:322,2
DA:323,2
DA:324,2
DA:325,0
DA:326,3107
DA:330,3107
DA:331,0
DA:333,3107
DA:334,3107
DA:335,3107
DA:336,3107
DA:338,3107
DA:339,3107
DA:341,3107
DA:342,1
DA:343,1
DA:344,1
DA:345,1
DA:346,3106
DA:347,3106
DA:348,3106
DA:349,3106
DA:350,3106
DA:351,3106
DA:352,3106
DA:353,3106
DA:354,3106
DA:355,3106
DA:356,3106
DA:357,3109
DA:418,3580
DA:419,3580
DA:420,1
DA:421,0
DA:423,3579
DA:425,3579
DA:426,3422
DA:427,3422
DA:428,3422
DA:430,157
DA:435,3579
DA:436,3579
DA:437,3579
DA:438,308
DA:439,308
DA:441,3579
DA:442,3579
DA:458,3579
DA:459,32211
DA:463,3579
DA:464,3579
DA:465,3579
DA:466,3579
DA:467,3579
DA:468,3579
DA:469,3579
DA:470,3579
DA:471,18203
DA:472,163827
DA:473,163827
DA:474,72
DA:475,72
DA:476,72
DA:477,163755
DA:484,17895
DA:485,17895
DA:486,17895
DA:487,3579
DA:488,3579
DA:489,3579
DA:490,3579
DA:494,3579
DA:496,3579
DA:497,3579
DA:498,3579
DA:499,3579
DA:500,3579
DA:501,3579
DA:502,3579
DA:503,3577
DA:505,2
DA:507,3579
DA:508,3579
DA:509,3579
DA:510,3579
DA:511,3579
DA:512,3579
DA:513,3579
DA:514,3579
DA:516,0
DA:519,3579
DA:520,3579
DA:521,3579
DA:522,3579
DA:523,3579
DA:524,3579
DA:525,3579
DA:526,3579
DA:527,3579
DA:528,3580
DA:546,3237
DA:547,3237
DA:548,3237
DA:549,3237
DA:550,3237
DA:551,3237
DA:552,1
DA:553,3146
DA:554,90
DA:555,90
DA:556,30
DA:557,60
DA:559,90
DA:562,3237
DA:565,3677
DA:566,3677
DA:567,3677
DA:568,3231
DA:569,3231
DA:570,0
DA:572,3231
DA:573,3231
DA:574,30
DA:575,0
DA:577,3201
DA:578,3000
DA:581,201
DA:583,3231
DA:585,446
DA:586,152
DA:587,152
DA:589,294
DA:590,294
DA:591,192
DA:592,90
DA:593,0
DA:595,3677
DA:604,201
DA:605,201
DA:606,201
DA:607,201
DA:608,201
DA:609,201
DA:610,201
DA:611,201
DA:612,201
DA:613,200
DA:614,1
DA:615,0
DA:616,1
DA:617,1
DA:618,0
DA:620,0
DA:621,201
DA:630,6658
DA:631,6658
DA:632,6658
DA:633,6658
DA:634,6658
DA:635,6658
DA:636,6658
DA:637,6658
DA:638,6658
DA:639,6658
DA:640,1
DA:641,6657
DA:643,6658
DA:644,6658
DA:665,6658
DA:666,6658
DA:667,6658
DA:668,6658
DA:669,6658
DA:670,6658
DA:671,6658
DA:672,6658
DA:673,6658
DA:680,6658
DA:681,6658
DA:682,6656
DA:683,6656
DA:684,6655
DA:687,1
DA:689,6656
DA:690,6656
DA:691,6656
DA:692,6656
DA:693,6656
DA:694,6656
DA:695,6656
DA:700,2
DA:701,2
DA:702,2
DA:703,2
DA:704,2
DA:705,2
DA:706,2
DA:711,6658
DA:712,3106
DA:713,3552
DA:715,6658
DA:716,6658
DA:717,6658
DA:718,6658
DA:719,6658
DA:720,6658
DA:721,6658
DA:722,6658
DA:723,6658
DA:724,6658
DA:725,6658
DA:728,6658
DA:729,6658
DA:730,6658
DA:731,6658
DA:732,6658
DA:733,6658
DA:734,6658
DA:735,6658
DA:737,27
DA:738,27
DA:739,27
DA:740,27
DA:741,27
DA:742,27
DA:743,27
DA:744,27
DA:753,27
DA:755,26
DA:756,26
DA:757,26
DA:758,26
DA:760,37
DA:763,37
DA:764,37
DA:765,37
DA:766,37
DA:767,37
DA:768,37
DA:770,37
DA:771,37
DA:772,37
DA:773,37
DA:774,37
DA:775,37
DA:776,37
DA:777,37
DA:778,37
DA:779,37
DA:781,37
DA:782,39
DA:783,39
DA:784,39
DA:785,39
DA:786,39
DA:787,39
DA:788,39
DA:790,10
DA:791,10
DA:792,10
DA:793,10
DA:794,10
DA:795,10
DA:796,10
DA:797,10
DA:800,29
DA:802,3
DA:804,26
DA:806,4
DA:807,1
DA:808,1
DA:809,1
DA:810,1
DA:812,4
DA:813,3
DA:816,3
DA:817,0
DA:818,0
DA:819,0
DA:822,1
DA:825,4
DA:826,4
DA:827,0
DA:828,0
DA:829,0
DA:830,0
DA:831,0
DA:832,0
DA:833,0
DA:834,0
DA:835,0
DA:837,0
DA:838,0
DA:839,0
DA:840,0
DA:842,0
DA:845,0
DA:846,0
DA:850,0
DA:852,0
DA:853,0
DA:857,0
DA:859,4
DA:862,4
DA:863,0
DA:864,0
DA:865,0
DA:866,0
DA:870,0
DA:873,4
DA:875,4
DA:878,0
DA:885,0
DA:886,4
DA:887,4
DA:888,4
DA:889,4
DA:890,4
DA:891,4
DA:892,4
DA:893,4
DA:898,4
DA:899,0
DA:900,0
DA:901,0
DA:902,0
DA:903,0
DA:904,0
DA:905,0
DA:906,0
DA:907,0
DA:908,0
DA:909,0
DA:910,0
DA:911,0
DA:912,0
DA:913,0
DA:914,0
DA:918,0
DA:919,0
DA:922,0
DA:924,0
DA:927,4
DA:931,4
DA:932,4
DA:933,4
DA:934,4
DA:935,4
DA:936,4
DA:937,4
DA:938,4
DA:939,4
DA:993,22
DA:994,0
DA:995,0
DA:996,0
DA:997,0
DA:998,0
DA:999,0
DA:1000,0
DA:1003,22
DA:1007,39
DA:1010,26
DA:1021,26
DA:1036,26
DA:1037,26
DA:1038,26
DA:1039,26
DA:1040,26
DA:1041,26
DA:1042,26
DA:1043,26
DA:1044,20
DA:1045,20
DA:1047,6
DA:1049,26
DA:1050,26
DA:1052,26
DA:1053,2
DA:1054,24
DA:1060,26
DA:1061,26
DA:1062,26
DA:1063,26
DA:1064,26
DA:1065,26
DA:1068,26
DA:1069,6
DA:1071,20
DA:1073,26
DA:1076,26
DA:1078,26
DA:1079,26
DA:1081,3132
DA:1082,0
DA:1083,3132
DA:1084,3132
DA:1085,1228
DA:1086,6
DA:1087,1222
DA:1088,1904
DA:1089,3126
DA:1090,1904
DA:1091,20
DA:1092,1884
DA:1093,1222
DA:1094,3106
DA:1095,0
DA:1096,3106
DA:1103,3106
DA:1104,3106
DA:1107,3106
DA:1109,435
DA:1110,435
DA:1111,435
DA:1112,435
DA:1113,435
DA:1114,435
DA:1116,0
DA:1118,2671
DA:1121,315
DA:1122,315
DA:1123,315
DA:1131,2356
DA:1132,2356
DA:1133,537
DA:1134,537
DA:1135,537
DA:1136,537
DA:1138,1819
DA:1141,3106
DA:1145,3106
DA:1147,3106
DA:1152,3106
DA:1157,3106
DA:1158,2537
DA:1159,2537
DA:1160,2537
DA:1161,819
DA:1162,819
DA:1163,819
DA:1164,819
DA:1165,1718
DA:1167,1069
DA:1171,3106
DA:1175,466
DA:1176,466
DA:1177,379
DA:1178,379
DA:1179,379
DA:1180,379
DA:1181,379
DA:1182,87
DA:1185,379
DA:1186,2727
DA:1190,2727
DA:1191,2727
DA:1192,7
DA:1193,7
DA:1195,2725
DA:1196,2725
DA:1197,2725
DA:1198,2725
DA:1199,0
DA:1200,0
DA:1202,26
DA:1203,26
DA:1204,26
DA:1205,26
DA:1206,26
DA:1207,26
DA:1208,26
DA:1209,26
DA:1210,26
DA:1211,0
DA:1212,26
DA:1213,27
DA:1215,25
DA:1217,25
DA:1218,25
DA:1219,1
DA:1220,24
DA:1223,24
DA:1224,24
DA:1225,2
DA:1226,22
DA:1230,24
DA:1231,24
DA:1232,24
DA:1233,24
DA:1234,24
DA:1235,0
DA:1237,24
DA:1238,25
DA:1242,25
DA:1243,25
DA:1244,0
DA:1245,0
DA:1246,0
DA:1248,0
DA:1250,0
DA:1251,0
DA:1252,0
DA:1253,0
DA:1255,0
DA:1256,0
DA:1258,0
DA:1259,0
DA:1261,25
DA:1264,25
DA:1265,25
DA:1266,25
DA:1267,25
DA:1268,25
DA:1269,25
DA:1270,25
DA:1271,25
DA:1272,25
DA:1274,25
DA:1275,0
DA:1276,25
DA:1278,24
DA:1279,24
DA:1280,24
DA:1282,24
DA:1283,24
DA:1284,25
DA:1297,1
DA:1298,1
DA:1299,1
DA:1300,1
DA:1301,1
DA:1302,1
DA:1303,1
DA:1304,1
DA:1305,1
DA:1306,1
DA:1307,1
DA:1308,1
DA:1309,1
DA:1310,1
DA:1311,1
DA:1312,1
DA:1313,1
DA:1314,1
DA:1315,1
DA:1316,1
DA:1317,1
DA:1319,1
DA:1320,1
DA:1325,1
DA:1326,1
DA:1330,1
DA:1331,1
DA:1332,1
DA:1333,1
DA:1334,1
DA:1335,1
DA:1336,1
DA:1337,1
DA:1338,1
DA:1339,1
DA:1341,1
DA:1342,1
DA:1344,0
DA:1346,1
DA:1350,1
DA:1351,1
DA:1352,1
DA:1353,1
DA:1354,1
DA:1355,1
DA:1356,1
DA:1357,1
DA:1358,1
DA:1359,1
DA:1360,1
DA:1361,1
DA:1362,1
DA:1363,1
DA:1364,1
DA:1365,1
DA:1366,1
DA:1367,1
DA:1368,1
DA:1369,1
DA:1371,1
DA:1372,1
DA:1375,1
DA:1376,1
DA:1377,1
DA:1381,1
DA:1382,1
DA:1383,1
DA:1384,1
DA:1385,1
DA:1386,1
DA:1387,1
DA:1388,1
DA:1389,1
DA:1390,1
DA:1391,1
DA:1392,1
DA:1393,1
DA:1394,1
DA:1395,1
DA:1396,1
DA:1397,1
DA:1398,1
DA:1399,1
DA:1400,1
DA:1401,1
DA:1402,1
DA:1403,1
DA:1404,1
DA:1406,1
DA:1408,1
DA:1409,1
DA:1410,1
DA:1413,1
DA:1414,1
DA:1415,1
DA:1416,1
DA:1417,1
DA:1418,1
DA:1419,1
DA:1423,1
DA:1424,1
DA:1425,1
DA:1426,1
DA:1427,1
DA:1428,1
DA:1429,1
DA:1430,1
DA:1431,1
DA:1432,1
DA:1433,1
DA:1434,1
DA:1435,1
DA:1436,1
DA:1437,1
DA:1438,1
DA:1439,1
DA:1440,1
DA:1441,1
DA:1442,1
DA:1445,1
DA:1446,1
DA:1447,1
DA:1449,1
DA:1451,1
DA:1452,1
DA:1456,1
DA:1460,1
DA:1461,1
DA:1462,1
DA:1463,1
DA:1464,1
DA:1465,1
DA:1466,1
DA:1470,1
DA:1471,1
DA:1472,1
DA:1473,1
DA:1474,1
DA:1475,1
DA:1483,1
DA:1484,1
DA:1485,1
DA:1486,1
DA:1487,1
DA:1489,1
DA:1490,1
DA:1491,1
DA:1492,1
DA:1493,1
DA:1497,1
DA:1498,1
DA:1499,1
DA:1500,1
DA:1501,1
DA:1502,1
DA:1503,1
DA:1504,1
DA:1505,1
DA:1506,1
DA:1508,1
DA:1510,1
DA:1511,1
DA:1515,1
DA:1516,1
DA:1517,1
DA:1518,1
DA:1519,1
DA:1520,1
DA:1521,1
DA:1522,1
DA:1523,1
DA:1524,1
DA:1525,1
DA:1526,1
DA:1527,1
DA:1528,1
DA:1529,1
DA:1530,1
DA:1531,1
DA:1532,1
DA:1533,1
DA:1534,1
DA:1535,1
DA:1542,1
DA:1543,1
DA:1544,1
DA:1545,1
DA:1546,1
DA:1547,1
DA:1548,1
DA:1549,1
DA:1550,1
DA:1555,1
DA:1556,1
DA:1557,1
DA:1558,1
DA:1559,1
DA:1560,1
DA:1561,1
DA:1562,1
DA:1563,1
DA:1565,1
DA:1566,1
DA:1567,0
DA:1568,0
DA:1571,1
DA:1576,1
DA:1577,1
DA:1578,1
DA:1579,1
DA:1580,1
DA:1581,1
DA:1582,1
DA:1583,1
DA:1584,1
DA:1585,1
DA:1586,1
DA:1587,1
DA:1588,1
DA:1589,1
DA:1590,1
DA:1595,1
DA:1596,1
DA:1597,1
DA:1598,1
DA:1599,1
DA:1600,1
DA:1601,1
DA:1602,1
DA:1607,1
DA:1608,1
DA:1609,1
DA:1610,1
DA:1611,1
DA:1612,1
DA:1613,1
DA:1614,1
DA:1615,1
DA:1620,1
DA:1621,1
DA:1622,1
DA:1623,1
DA:1624,1
DA:1626,1
DA:1627,1
DA:1628,1
DA:1629,1
DA:1630,1
DA:1631,1
DA:1632,1
DA:1633,1
DA:1634,1
DA:1635,1
DA:1641,1
DA:1644,1
DA:1645,1
DA:1646,1
DA:1647,1
DA:1648,1
DA:1649,1
DA:1650,1
DA:1651,1
DA:1653,1
DA:1654,1
DA:1655,1
DA:1656,1
DA:1657,1
DA:1658,1
DA:1659,1
DA:1660,1
DA:1661,1
DA:1662,1
DA:1663,1
DA:1664,1
DA:1665,1
DA:1666,1
DA:1667,1
DA:1668,1
DA:1669,1
DA:1670,1
DA:1671,9
DA:1672,1
DA:1673,1
DA:1676,1
DA:1677,1
DA:1678,1
DA:1680,1
DA:1682,1
DA:1683,1
DA:1684,1
DA:1689,1
DA:1692,1
DA:1693,1
DA:1694,1
DA:1695,1
DA:1696,1
DA:1697,1
DA:1698,1
DA:1699,1
DA:1700,1
DA:1701,1
DA:1702,1
DA:1703,1
DA:1704,1
DA:1705,1
DA:1706,1
DA:1707,1
DA:1708,1
DA:1709,9
DA:1710,1
DA:1711,1
DA:1713,1
DA:1714,1
DA:1715,1
DA:1717,1
DA:1718,1
DA:1726,1
DA:1727,1
DA:1728,1
DA:1729,1
DA:1730,1
DA:1731,1
DA:1732,1
DA:1733,1
DA:1734,1
DA:1735,1
DA:1736,1
DA:1737,1
DA:1738,1
DA:1739,1
DA:1741,1
DA:1742,1
DA:1747,1
DA:1749,1
DA:1750,1
DA:1751,1
DA:1752,1
DA:1753,1
DA:1754,1
DA:1755,1
DA:1756,1
DA:1757,1
DA:1758,1
DA:1759,1
DA:1760,1
DA:1761,1
DA:1762,1
DA:1763,1
DA:1764,1
DA:1765,1
DA:1766,1
DA:1767,1
DA:1768,1
DA:1769,1
DA:1770,1
DA:1776,1
DA:1778,1
DA:1779,1
DA:1780,1
DA:1781,1
DA:1782,1
DA:1784,1
DA:1785,1
DA:1786,1
DA:1787,1
DA:1788,1
DA:1789,1
DA:1790,1
DA:1791,1
DA:1792,1
DA:1793,1
DA:1794,1
DA:1795,1
DA:1796,1
DA:1797,1
DA:1798,1
DA:1799,1
DA:1800,1
DA:1801,1
DA:1802,1
DA:1803,1
DA:1804,1
DA:1805,1
DA:1806,1
DA:1807,1
DA:1808,1
DA:1810,1
DA:1812,1
DA:1813,1
DA:1814,1
DA:1815,1
BRF:0
BRH:0
LF:1118
LH:1012
end_of_record
SF:/private/tmp/pr17a-worktree/src/lib.rs
FN:58,_RNvCsdYvAweMv4CD_16syslog_generator22ensure_rustls_provider
FN:74,_RNvCsdYvAweMv4CD_16syslog_generator32ensure_rustls_provider_for_tests
FN:59,_RNCNvCsdYvAweMv4CD_16syslog_generator22ensure_rustls_provider0B3_
FN:74,_RNvCs3I23rWd8G42_16syslog_generator32ensure_rustls_provider_for_tests
FN:59,_RNCNvCs3I23rWd8G42_16syslog_generator22ensure_rustls_provider0B3_
FN:58,_RNvCs3I23rWd8G42_16syslog_generator22ensure_rustls_provider
FNDA:12,_RNvCsdYvAweMv4CD_16syslog_generator22ensure_rustls_provider
FNDA:4,_RNvCsdYvAweMv4CD_16syslog_generator32ensure_rustls_provider_for_tests
FNDA:1,_RNCNvCsdYvAweMv4CD_16syslog_generator22ensure_rustls_provider0B3_
FNDA:0,_RNvCs3I23rWd8G42_16syslog_generator32ensure_rustls_provider_for_tests
FNDA:1,_RNCNvCs3I23rWd8G42_16syslog_generator22ensure_rustls_provider0B3_
FNDA:9,_RNvCs3I23rWd8G42_16syslog_generator22ensure_rustls_provider
FNF:3
FNH:3
DA:58,21
DA:59,21
DA:60,2
DA:61,2
DA:62,21
DA:74,4
DA:75,4
DA:76,4
BRF:0
BRH:0
LF:9
LH:9
end_of_record
SF:/private/tmp/pr17a-worktree/src/load_shape.rs
FN:123,_RNvMNtCsdYvAweMv4CD_16syslog_generator10load_shapeNtB2_9LoadShape14effective_base
FN:70,_RNvMNtCsdYvAweMv4CD_16syslog_generator10load_shapeNtB2_9LoadShape7rate_at
FN:58,_RNvNtCsdYvAweMv4CD_16syslog_generator10load_shape13default_burst
FN:55,_RNvNtCsdYvAweMv4CD_16syslog_generator10load_shape13default_every
FN:52,_RNvNtCsdYvAweMv4CD_16syslog_generator10load_shape14default_period
FN:123,_RNvMNtCs3I23rWd8G42_16syslog_generator10load_shapeNtB2_9LoadShape14effective_base
FN:70,_RNvMNtCs3I23rWd8G42_16syslog_generator10load_shapeNtB2_9LoadShape7rate_at
FN:58,_RNvNtCs3I23rWd8G42_16syslog_generator10load_shape13default_burst
FN:55,_RNvNtCs3I23rWd8G42_16syslog_generator10load_shape13default_every
FN:52,_RNvNtCs3I23rWd8G42_16syslog_generator10load_shape14default_period
FN:140,_RNvNtNtCs3I23rWd8G42_16syslog_generator10load_shape5tests6approx
FN:192,_RNvNtNtCs3I23rWd8G42_16syslog_generator10load_shape5testss_18test_burst_windows
FN:243,_RNvNtNtCs3I23rWd8G42_16syslog_generator10load_shape5testss_19test_effective_base
FN:217,_RNvNtNtCs3I23rWd8G42_16syslog_generator10load_shape5testss_23test_deserialize_tagged
FN:208,_RNvNtNtCs3I23rWd8G42_16syslog_generator10load_shape5testss_24test_rate_never_negative
FN:152,_RNvNtNtCs3I23rWd8G42_16syslog_generator10load_shape5testss_27test_constant_explicit_rate
FN:282,_RNvNtNtCs3I23rWd8G42_16syslog_generator10load_shape5testss_30load_shape_burst_rate_at_basic
FN:266,_RNvNtNtCs3I23rWd8G42_16syslog_generator10load_shape5testss_31load_shape_linear_rate_at_basic
FN:145,_RNvNtNtCs3I23rWd8G42_16syslog_generator10load_shape5testss_33test_constant_uses_base_when_none
FN:158,_RNvNtNtCs3I23rWd8G42_16syslog_generator10load_shape5testss_34test_linear_ramp_endpoints_and_mid
FN:170,_RNvNtNtCs3I23rWd8G42_16syslog_generator10load_shape5testss_38test_linear_without_duration_holds_end
FN:179,_RNvNtNtCs3I23rWd8G42_16syslog_generator10load_shape5testss_48test_sine_starts_at_min_and_peaks_at_half_period
FNDA:2,_RNvMNtCsdYvAweMv4CD_16syslog_generator10load_shapeNtB2_9LoadShape14effective_base
FNDA:435,_RNvMNtCsdYvAweMv4CD_16syslog_generator10load_shapeNtB2_9LoadShape7rate_at
FNDA:0,_RNvNtCsdYvAweMv4CD_16syslog_generator10load_shape13default_burst
FNDA:0,_RNvNtCsdYvAweMv4CD_16syslog_generator10load_shape13default_every
FNDA:0,_RNvNtCsdYvAweMv4CD_16syslog_generator10load_shape14default_period
FNDA:2,_RNvMNtCs3I23rWd8G42_16syslog_generator10load_shapeNtB2_9LoadShape14effective_base
FNDA:28,_RNvMNtCs3I23rWd8G42_16syslog_generator10load_shapeNtB2_9LoadShape7rate_at
FNDA:0,_RNvNtCs3I23rWd8G42_16syslog_generator10load_shape13default_burst
FNDA:0,_RNvNtCs3I23rWd8G42_16syslog_generator10load_shape13default_every
FNDA:0,_RNvNtCs3I23rWd8G42_16syslog_generator10load_shape14default_period
FNDA:20,_RNvNtNtCs3I23rWd8G42_16syslog_generator10load_shape5tests6approx
FNDA:1,_RNvNtNtCs3I23rWd8G42_16syslog_generator10load_shape5testss_18test_burst_windows
FNDA:1,_RNvNtNtCs3I23rWd8G42_16syslog_generator10load_shape5testss_19test_effective_base
FNDA:1,_RNvNtNtCs3I23rWd8G42_16syslog_generator10load_shape5testss_23test_deserialize_tagged
FNDA:1,_RNvNtNtCs3I23rWd8G42_16syslog_generator10load_shape5testss_24test_rate_never_negative
FNDA:1,_RNvNtNtCs3I23rWd8G42_16syslog_generator10load_shape5testss_27test_constant_explicit_rate
FNDA:1,_RNvNtNtCs3I23rWd8G42_16syslog_generator10load_shape5testss_30load_shape_burst_rate_at_basic
FNDA:1,_RNvNtNtCs3I23rWd8G42_16syslog_generator10load_shape5testss_31load_shape_linear_rate_at_basic
FNDA:1,_RNvNtNtCs3I23rWd8G42_16syslog_generator10load_shape5testss_33test_constant_uses_base_when_none
FNDA:1,_RNvNtNtCs3I23rWd8G42_16syslog_generator10load_shape5testss_34test_linear_ramp_endpoints_and_mid
FNDA:1,_RNvNtNtCs3I23rWd8G42_16syslog_generator10load_shape5testss_38test_linear_without_duration_holds_end
FNDA:1,_RNvNtNtCs3I23rWd8G42_16syslog_generator10load_shape5testss_48test_sine_starts_at_min_and_peaks_at_half_period
FNF:17
FNH:14
DA:52,0
DA:53,0
DA:54,0
DA:55,0
DA:56,0
DA:57,0
DA:58,0
DA:59,0
DA:60,0
DA:70,463
DA:71,463
DA:72,463
DA:73,3
DA:75,232
DA:76,232
DA:78,232
DA:81,1
DA:83,231
DA:84,231
DA:88,4
DA:89,4
DA:90,4
DA:92,4
DA:93,0
DA:95,4
DA:97,4
DA:98,4
DA:100,4
DA:101,4
DA:104,224
DA:105,224
DA:106,224
DA:107,224
DA:109,224
DA:110,224
DA:111,224
DA:112,205
DA:114,19
DA:118,463
DA:119,463
DA:123,4
DA:124,4
DA:125,0
DA:127,2
DA:128,2
DA:129,2
DA:130,1
DA:131,1
DA:133,4
DA:140,20
DA:141,20
DA:142,20
DA:145,1
DA:146,1
DA:147,1
DA:148,1
DA:149,1
DA:152,1
DA:153,1
DA:154,1
DA:155,1
DA:158,1
DA:159,1
DA:160,1
DA:161,1
DA:162,1
DA:163,1
DA:164,1
DA:165,1
DA:166,1
DA:167,1
DA:170,1
DA:171,1
DA:172,1
DA:173,1
DA:174,1
DA:175,1
DA:176,1
DA:179,1
DA:180,1
DA:181,1
DA:182,1
DA:183,1
DA:184,1
DA:185,1
DA:186,1
DA:187,1
DA:188,1
DA:189,1
DA:192,1
DA:193,1
DA:194,1
DA:195,1
DA:196,1
DA:197,1
DA:198,1
DA:199,1
DA:200,1
DA:201,1
DA:202,1
DA:203,1
DA:204,1
DA:205,1
DA:208,1
DA:209,1
DA:210,1
DA:211,1
DA:212,1
DA:213,1
DA:214,1
DA:217,1
DA:218,1
DA:219,1
DA:220,1
DA:227,1
DA:228,1
DA:230,1
DA:231,1
DA:240,1
DA:243,1
DA:244,1
DA:245,1
DA:246,1
DA:247,1
DA:248,1
DA:249,1
DA:252,1
DA:253,1
DA:254,1
DA:255,1
DA:256,1
DA:257,1
DA:258,1
DA:261,1
DA:266,1
DA:268,1
DA:269,1
DA:270,1
DA:271,1
DA:273,1
DA:274,1
DA:276,1
DA:277,1
DA:282,1
DA:284,1
DA:285,1
DA:286,1
DA:287,1
DA:288,1
DA:289,1
DA:291,1
DA:292,1
DA:294,1
DA:295,1
DA:297,1
DA:298,1
DA:299,1
BRF:0
BRH:0
LF:157
LH:145
end_of_record
SF:/private/tmp/pr17a-worktree/src/main.rs
FN:161,_RNvCsbtzNtoGj2Gq_16syslog_generator14handle_command
FN:44,_RNvCsbtzNtoGj2Gq_16syslog_generator3run
FN:12,_RNvCsbtzNtoGj2Gq_16syslog_generator4main
FN:60,_RNCNCNvCsbtzNtoGj2Gq_16syslog_generator3run00B5_
FN:108,_RNCNCNvCsbtzNtoGj2Gq_16syslog_generator3run0s0_0B5_
FN:122,_RNCNCNvCsbtzNtoGj2Gq_16syslog_generator3run0s1_0B5_
FN:83,_RNCNCNvCsbtzNtoGj2Gq_16syslog_generator3run0s_0B5_
FN:23,_RNCNCNvCsbtzNtoGj2Gq_16syslog_generator4main00B5_
FN:177,_RNCNvCsbtzNtoGj2Gq_16syslog_generator14handle_command0B3_
FN:44,_RNCNvCsbtzNtoGj2Gq_16syslog_generator3run0B3_
FN:12,_RNCNvCsbtzNtoGj2Gq_16syslog_generator4main0B3_
FN:60,_RNCNCNvCsnB8W8NKisC_16syslog_generator3run00B5_
FN:108,_RNCNCNvCsnB8W8NKisC_16syslog_generator3run0s0_0B5_
FN:122,_RNCNCNvCsnB8W8NKisC_16syslog_generator3run0s1_0B5_
FN:83,_RNCNCNvCsnB8W8NKisC_16syslog_generator3run0s_0B5_
FN:23,_RNCNCNvCsnB8W8NKisC_16syslog_generator4main00B5_
FN:177,_RNCNvCsnB8W8NKisC_16syslog_generator14handle_command0B3_
FN:44,_RNCNvCsnB8W8NKisC_16syslog_generator3run0B3_
FN:12,_RNCNvCsnB8W8NKisC_16syslog_generator4main0B3_
FN:161,_RNvCsnB8W8NKisC_16syslog_generator14handle_command
FN:44,_RNvCsnB8W8NKisC_16syslog_generator3run
FN:12,_RNvCsnB8W8NKisC_16syslog_generator4main
FNDA:0,_RNvCsbtzNtoGj2Gq_16syslog_generator14handle_command
FNDA:8,_RNvCsbtzNtoGj2Gq_16syslog_generator3run
FNDA:8,_RNvCsbtzNtoGj2Gq_16syslog_generator4main
FNDA:2,_RNCNCNvCsbtzNtoGj2Gq_16syslog_generator3run00B5_
FNDA:0,_RNCNCNvCsbtzNtoGj2Gq_16syslog_generator3run0s0_0B5_
FNDA:0,_RNCNCNvCsbtzNtoGj2Gq_16syslog_generator3run0s1_0B5_
FNDA:0,_RNCNCNvCsbtzNtoGj2Gq_16syslog_generator3run0s_0B5_
FNDA:8,_RNCNCNvCsbtzNtoGj2Gq_16syslog_generator4main00B5_
FNDA:0,_RNCNvCsbtzNtoGj2Gq_16syslog_generator14handle_command0B3_
FNDA:8,_RNCNvCsbtzNtoGj2Gq_16syslog_generator3run0B3_
FNDA:8,_RNCNvCsbtzNtoGj2Gq_16syslog_generator4main0B3_
FNDA:0,_RNCNCNvCsnB8W8NKisC_16syslog_generator3run00B5_
FNDA:0,_RNCNCNvCsnB8W8NKisC_16syslog_generator3run0s0_0B5_
FNDA:0,_RNCNCNvCsnB8W8NKisC_16syslog_generator3run0s1_0B5_
FNDA:0,_RNCNCNvCsnB8W8NKisC_16syslog_generator3run0s_0B5_
FNDA:0,_RNCNCNvCsnB8W8NKisC_16syslog_generator4main00B5_
FNDA:0,_RNCNvCsnB8W8NKisC_16syslog_generator14handle_command0B3_
FNDA:0,_RNCNvCsnB8W8NKisC_16syslog_generator3run0B3_
FNDA:0,_RNCNvCsnB8W8NKisC_16syslog_generator4main0B3_
FNDA:0,_RNvCsnB8W8NKisC_16syslog_generator14handle_command
FNDA:0,_RNvCsnB8W8NKisC_16syslog_generator3run
FNDA:0,_RNvCsnB8W8NKisC_16syslog_generator4main
FNF:11
FNH:6
DA:12,8
DA:21,8
DA:22,8
DA:23,8
DA:25,8
DA:26,8
DA:27,8
DA:29,8
DA:30,8
DA:31,8
DA:32,8
DA:33,8
DA:34,8
DA:35,8
DA:36,8
DA:37,8
DA:38,8
DA:39,8
DA:40,8
DA:41,8
DA:42,8
DA:44,8
DA:45,8
DA:48,8
DA:49,1
DA:50,7
DA:56,7
DA:57,3
DA:58,3
DA:59,3
DA:60,3
DA:62,4
DA:66,5
DA:67,5
DA:70,5
DA:72,1
DA:73,1
DA:74,1
DA:75,1
DA:76,1
DA:77,1
DA:78,4
DA:81,4
DA:82,0
DA:83,0
DA:84,4
DA:87,4
DA:88,4
DA:89,1
DA:90,1
DA:91,3
DA:92,3
DA:93,1
DA:95,1
DA:96,1
DA:98,1
DA:99,2
DA:103,2
DA:105,0
DA:106,0
DA:107,0
DA:108,0
DA:109,0
DA:112,0
DA:117,0
DA:118,0
DA:119,0
DA:120,0
DA:121,0
DA:122,0
DA:123,0
DA:127,0
DA:128,0
DA:129,0
DA:131,0
DA:132,0
DA:133,0
DA:135,0
DA:136,0
DA:137,0
DA:138,0
DA:139,0
DA:140,0
DA:141,0
DA:142,0
DA:143,0
DA:144,2
DA:147,2
DA:148,1
DA:149,1
DA:150,1
DA:153,1
DA:154,1
DA:155,1
DA:156,1
DA:157,1
DA:158,8
DA:161,0
DA:163,0
DA:164,0
DA:165,0
DA:166,0
DA:167,0
DA:168,0
DA:169,0
DA:172,0
DA:173,0
DA:174,0
DA:175,0
DA:176,0
DA:177,0
DA:179,0
DA:180,0
DA:183,0
BRF:0
BRH:0
LF:127
LH:76
end_of_record
SF:/private/tmp/pr17a-worktree/src/observability/metrics.rs
FN:372,_RNCNvNtNtCsdYvAweMv4CD_16syslog_generator13observability7metrics10make_gauge0B7_
FN:308,_RNCNvNtNtCsdYvAweMv4CD_16syslog_generator13observability7metrics14create_metrics0B7_
FN:390,_RNCNvNtNtCsdYvAweMv4CD_16syslog_generator13observability7metrics14make_histogram0B7_
FN:368,_RNCNvNtNtCsdYvAweMv4CD_16syslog_generator13observability7metrics16make_counter_vec0B7_
FN:377,_RNCNvNtNtCsdYvAweMv4CD_16syslog_generator13observability7metrics16make_int_counter0B7_
FN:371,_RNvNtNtCsdYvAweMv4CD_16syslog_generator13observability7metrics10make_gauge
FN:84,_RNvNtNtCsdYvAweMv4CD_16syslog_generator13observability7metrics14create_metrics
FN:351,_RNvNtNtCsdYvAweMv4CD_16syslog_generator13observability7metrics14gather_metrics
FN:380,_RNvNtNtCsdYvAweMv4CD_16syslog_generator13observability7metrics14make_histogram
FN:366,_RNvNtNtCsdYvAweMv4CD_16syslog_generator13observability7metrics16make_counter_vec
FN:375,_RNvNtNtCsdYvAweMv4CD_16syslog_generator13observability7metrics16make_int_counter
FN:399,_RNvNtNtNtCs3I23rWd8G42_16syslog_generator13observability7metrics5testss_17create_metrics_ok
FN:483,_RNvNtNtNtCs3I23rWd8G42_16syslog_generator13observability7metrics5testss_37f17_anomalies_applied_total_after_inc
FN:512,_RNvNtNtNtCs3I23rWd8G42_16syslog_generator13observability7metrics5testss_37f17_anomalies_dropped_total_after_inc
FN:449,_RNvNtNtNtCs3I23rWd8G42_16syslog_generator13observability7metrics5testss_37n2_messages_by_format_total_after_inc
FN:409,_RNvNtNtNtCs3I23rWd8G42_16syslog_generator13observability7metrics5testss_40gather_metrics_ok_contains_known_scalars
FN:433,_RNvNtNtNtCs3I23rWd8G42_16syslog_generator13observability7metrics5testss_40n2_no_cpu_or_memory_gauges_in_exposition
FN:530,_RNvNtNtNtCs3I23rWd8G42_16syslog_generator13observability7metrics5testss_46record_send_latency_increments_histogram_count
FN:419,_RNvNtNtNtCs3I23rWd8G42_16syslog_generator13observability7metrics5testss_49gather_metrics_includes_labeled_counter_after_inc
FN:372,_RNCNvNtNtCs3I23rWd8G42_16syslog_generator13observability7metrics10make_gauge0B7_
FN:308,_RNCNvNtNtCs3I23rWd8G42_16syslog_generator13observability7metrics14create_metrics0B7_
FN:390,_RNCNvNtNtCs3I23rWd8G42_16syslog_generator13observability7metrics14make_histogram0B7_
FN:368,_RNCNvNtNtCs3I23rWd8G42_16syslog_generator13observability7metrics16make_counter_vec0B7_
FN:377,_RNCNvNtNtCs3I23rWd8G42_16syslog_generator13observability7metrics16make_int_counter0B7_
FN:371,_RNvNtNtCs3I23rWd8G42_16syslog_generator13observability7metrics10make_gauge
FN:84,_RNvNtNtCs3I23rWd8G42_16syslog_generator13observability7metrics14create_metrics
FN:351,_RNvNtNtCs3I23rWd8G42_16syslog_generator13observability7metrics14gather_metrics
FN:380,_RNvNtNtCs3I23rWd8G42_16syslog_generator13observability7metrics14make_histogram
FN:366,_RNvNtNtCs3I23rWd8G42_16syslog_generator13observability7metrics16make_counter_vec
FN:375,_RNvNtNtCs3I23rWd8G42_16syslog_generator13observability7metrics16make_int_counter
FN:493,_RNCNvNtNtNtCs3I23rWd8G42_16syslog_generator13observability7metrics5testss_37f17_anomalies_applied_total_after_inc0B9_
FN:501,_RNCNvNtNtNtCs3I23rWd8G42_16syslog_generator13observability7metrics5testss_37f17_anomalies_applied_total_after_incs_0B9_
FN:519,_RNCNvNtNtNtCs3I23rWd8G42_16syslog_generator13observability7metrics5testss_37f17_anomalies_dropped_total_after_inc0B9_
FN:465,_RNCNvNtNtNtCs3I23rWd8G42_16syslog_generator13observability7metrics5testss_37n2_messages_by_format_total_after_inc0B9_
FN:472,_RNCNvNtNtNtCs3I23rWd8G42_16syslog_generator13observability7metrics5testss_37n2_messages_by_format_total_after_incs_0B9_
FNDA:0,_RNCNvNtNtCsdYvAweMv4CD_16syslog_generator13observability7metrics10make_gauge0B7_
FNDA:0,_RNCNvNtNtCsdYvAweMv4CD_16syslog_generator13observability7metrics14create_metrics0B7_
FNDA:0,_RNCNvNtNtCsdYvAweMv4CD_16syslog_generator13observability7metrics14make_histogram0B7_
FNDA:0,_RNCNvNtNtCsdYvAweMv4CD_16syslog_generator13observability7metrics16make_counter_vec0B7_
FNDA:0,_RNCNvNtNtCsdYvAweMv4CD_16syslog_generator13observability7metrics16make_int_counter0B7_
FNDA:87,_RNvNtNtCsdYvAweMv4CD_16syslog_generator13observability7metrics10make_gauge
FNDA:29,_RNvNtNtCsdYvAweMv4CD_16syslog_generator13observability7metrics14create_metrics
FNDA:12,_RNvNtNtCsdYvAweMv4CD_16syslog_generator13observability7metrics14gather_metrics
FNDA:116,_RNvNtNtCsdYvAweMv4CD_16syslog_generator13observability7metrics14make_histogram
FNDA:319,_RNvNtNtCsdYvAweMv4CD_16syslog_generator13observability7metrics16make_counter_vec
FNDA:58,_RNvNtNtCsdYvAweMv4CD_16syslog_generator13observability7metrics16make_int_counter
FNDA:1,_RNvNtNtNtCs3I23rWd8G42_16syslog_generator13observability7metrics5testss_17create_metrics_ok
FNDA:1,_RNvNtNtNtCs3I23rWd8G42_16syslog_generator13observability7metrics5testss_37f17_anomalies_applied_total_after_inc
FNDA:1,_RNvNtNtNtCs3I23rWd8G42_16syslog_generator13observability7metrics5testss_37f17_anomalies_dropped_total_after_inc
FNDA:1,_RNvNtNtNtCs3I23rWd8G42_16syslog_generator13observability7metrics5testss_37n2_messages_by_format_total_after_inc
FNDA:1,_RNvNtNtNtCs3I23rWd8G42_16syslog_generator13observability7metrics5testss_40gather_metrics_ok_contains_known_scalars
FNDA:1,_RNvNtNtNtCs3I23rWd8G42_16syslog_generator13observability7metrics5testss_40n2_no_cpu_or_memory_gauges_in_exposition
FNDA:1,_RNvNtNtNtCs3I23rWd8G42_16syslog_generator13observability7metrics5testss_46record_send_latency_increments_histogram_count
FNDA:1,_RNvNtNtNtCs3I23rWd8G42_16syslog_generator13observability7metrics5testss_49gather_metrics_includes_labeled_counter_after_inc
FNDA:0,_RNCNvNtNtCs3I23rWd8G42_16syslog_generator13observability7metrics10make_gauge0B7_
FNDA:0,_RNCNvNtNtCs3I23rWd8G42_16syslog_generator13observability7metrics14create_metrics0B7_
FNDA:0,_RNCNvNtNtCs3I23rWd8G42_16syslog_generator13observability7metrics14make_histogram0B7_
FNDA:0,_RNCNvNtNtCs3I23rWd8G42_16syslog_generator13observability7metrics16make_counter_vec0B7_
FNDA:0,_RNCNvNtNtCs3I23rWd8G42_16syslog_generator13observability7metrics16make_int_counter0B7_
FNDA:135,_RNvNtNtCs3I23rWd8G42_16syslog_generator13observability7metrics10make_gauge
FNDA:45,_RNvNtNtCs3I23rWd8G42_16syslog_generator13observability7metrics14create_metrics
FNDA:15,_RNvNtNtCs3I23rWd8G42_16syslog_generator13observability7metrics14gather_metrics
FNDA:180,_RNvNtNtCs3I23rWd8G42_16syslog_generator13observability7metrics14make_histogram
FNDA:495,_RNvNtNtCs3I23rWd8G42_16syslog_generator13observability7metrics16make_counter_vec
FNDA:90,_RNvNtNtCs3I23rWd8G42_16syslog_generator13observability7metrics16make_int_counter
FNDA:9,_RNCNvNtNtNtCs3I23rWd8G42_16syslog_generator13observability7metrics5testss_37f17_anomalies_applied_total_after_inc0B9_
FNDA:10,_RNCNvNtNtNtCs3I23rWd8G42_16syslog_generator13observability7metrics5testss_37f17_anomalies_applied_total_after_incs_0B9_
FNDA:9,_RNCNvNtNtNtCs3I23rWd8G42_16syslog_generator13observability7metrics5testss_37f17_anomalies_dropped_total_after_inc0B9_
FNDA:61,_RNCNvNtNtNtCs3I23rWd8G42_16syslog_generator13observability7metrics5testss_37n2_messages_by_format_total_after_inc0B9_
FNDA:60,_RNCNvNtNtNtCs3I23rWd8G42_16syslog_generator13observability7metrics5testss_37n2_messages_by_format_total_after_incs_0B9_
FNF:24
FNH:19
DA:84,74
DA:85,74
DA:87,74
DA:88,74
DA:89,74
DA:90,74
DA:91,0
DA:92,74
DA:93,74
DA:94,74
DA:95,74
DA:96,0
DA:97,74
DA:98,74
DA:99,74
DA:100,0
DA:101,74
DA:102,74
DA:103,74
DA:104,0
DA:105,74
DA:106,74
DA:107,74
DA:108,0
DA:109,74
DA:110,74
DA:111,74
DA:112,74
DA:113,0
DA:114,74
DA:115,74
DA:116,74
DA:117,74
DA:118,74
DA:119,0
DA:123,74
DA:124,74
DA:125,74
DA:126,74
DA:127,0
DA:128,74
DA:129,74
DA:130,74
DA:131,74
DA:132,0
DA:135,74
DA:136,74
DA:137,74
DA:138,74
DA:139,74
DA:140,74
DA:141,74
DA:142,0
DA:144,74
DA:145,74
DA:146,74
DA:147,74
DA:148,74
DA:149,74
DA:150,74
DA:151,0
DA:153,74
DA:154,74
DA:155,74
DA:156,74
DA:157,0
DA:183,74
DA:184,74
DA:185,74
DA:186,74
DA:187,0
DA:192,74
DA:193,74
DA:194,74
DA:195,74
DA:196,74
DA:197,0
DA:198,74
DA:199,74
DA:200,74
DA:201,74
DA:202,74
DA:203,74
DA:204,0
DA:207,74
DA:208,74
DA:209,74
DA:210,74
DA:211,0
DA:214,74
DA:215,74
DA:216,74
DA:217,74
DA:218,0
DA:223,74
DA:224,74
DA:225,74
DA:226,74
DA:227,74
DA:228,74
DA:229,74
DA:230,74
DA:231,74
DA:232,74
DA:233,74
DA:234,74
DA:235,74
DA:236,74
DA:237,74
DA:238,74
DA:239,74
DA:240,74
DA:241,74
DA:242,74
DA:243,74
DA:244,74
DA:245,74
DA:246,74
DA:247,74
DA:248,74
DA:249,74
DA:250,74
DA:251,74
DA:252,74
DA:253,74
DA:254,74
DA:255,74
DA:256,74
DA:257,74
DA:258,74
DA:259,74
DA:260,74
DA:261,74
DA:262,74
DA:263,74
DA:279,74
DA:280,74
DA:281,74
DA:282,74
DA:283,74
DA:284,74
DA:285,74
DA:286,74
DA:287,74
DA:288,74
DA:289,74
DA:290,74
DA:291,74
DA:292,74
DA:293,74
DA:294,74
DA:295,74
DA:296,74
DA:297,74
DA:298,74
DA:299,74
DA:300,74
DA:301,74
DA:302,74
DA:303,74
DA:305,1480
DA:306,1480
DA:307,1480
DA:308,1480
DA:311,74
DA:312,74
DA:313,74
DA:314,74
DA:315,74
DA:316,74
DA:317,74
DA:318,74
DA:319,74
DA:320,74
DA:321,74
DA:322,74
DA:323,74
DA:324,74
DA:325,74
DA:326,74
DA:327,74
DA:328,74
DA:329,74
DA:330,74
DA:331,74
DA:332,74
DA:333,74
DA:334,74
DA:335,74
DA:336,74
DA:337,74
DA:338,74
DA:339,74
DA:340,74
DA:351,27
DA:352,27
DA:353,27
DA:354,27
DA:355,27
DA:356,27
DA:357,27
DA:358,27
DA:366,814
DA:367,814
DA:368,814
DA:369,814
DA:371,222
DA:372,222
DA:373,222
DA:375,148
DA:376,148
DA:377,148
DA:378,148
DA:380,296
DA:381,296
DA:382,296
DA:383,296
DA:384,296
DA:385,296
DA:386,296
DA:387,222
DA:388,74
DA:390,296
DA:391,296
DA:399,1
DA:400,1
DA:402,1
DA:403,1
DA:409,1
DA:410,1
DA:411,1
DA:412,1
DA:413,1
DA:414,1
DA:415,1
DA:419,1
DA:420,1
DA:421,1
DA:422,1
DA:423,1
DA:424,1
DA:425,1
DA:426,1
DA:433,1
DA:434,1
DA:435,1
DA:436,1
DA:437,1
DA:440,1
DA:441,1
DA:444,1
DA:449,1
DA:450,1
DA:451,1
DA:452,1
DA:453,1
DA:454,1
DA:455,1
DA:456,1
DA:457,1
DA:458,1
DA:459,1
DA:460,1
DA:464,1
DA:465,61
DA:466,61
DA:467,1
DA:468,61
DA:471,1
DA:472,60
DA:473,60
DA:474,1
DA:475,60
DA:478,1
DA:483,1
DA:484,1
DA:485,1
DA:486,1
DA:487,1
DA:488,1
DA:489,1
DA:490,1
DA:491,1
DA:492,1
DA:493,9
DA:494,9
DA:496,1
DA:497,9
DA:500,1
DA:501,10
DA:502,10
DA:503,1
DA:504,10
DA:507,1
DA:512,1
DA:513,1
DA:514,1
DA:515,1
DA:516,1
DA:517,1
DA:518,1
DA:519,9
DA:520,9
DA:521,1
DA:522,9
DA:525,1
DA:530,1
DA:532,1
DA:533,1
DA:534,1
DA:535,1
DA:538,1
DA:539,1
DA:540,1
BRF:0
BRH:0
LF:324
LH:302
end_of_record
SF:/private/tmp/pr17a-worktree/src/observability/server.rs
FN:121,_RNCNCNCNvNtNtCsdYvAweMv4CD_16syslog_generator13observability6server5serve0s2_00Bb_
FN:98,_RNCNCNvNtNtCsdYvAweMv4CD_16syslog_generator13observability6server5serve00B9_
FN:102,_RNCNCNvNtNtCsdYvAweMv4CD_16syslog_generator13observability6server5serve0s0_0B9_
FN:119,_RNCNCNvNtNtCsdYvAweMv4CD_16syslog_generator13observability6server5serve0s2_0B9_
FN:144,_RNCNCNvNtNtCsdYvAweMv4CD_16syslog_generator13observability6server5serve0s3_0B9_
FN:101,_RNCNCNvNtNtCsdYvAweMv4CD_16syslog_generator13observability6server5serve0s_0B9_
FN:71,_RNCNvNtNtCsdYvAweMv4CD_16syslog_generator13observability6server11handle_conn0B7_
FN:95,_RNCNvNtNtCsdYvAweMv4CD_16syslog_generator13observability6server5serve0B7_
FN:160,_RNCNvNtNtCsdYvAweMv4CD_16syslog_generator13observability6server5spawn0B7_
FN:71,_RNvNtNtCsdYvAweMv4CD_16syslog_generator13observability6server11handle_conn
FN:22,_RNvNtNtCsdYvAweMv4CD_16syslog_generator13observability6server18parse_request_line
FN:34,_RNvNtNtCsdYvAweMv4CD_16syslog_generator13observability6server19build_http_response
FN:47,_RNvNtNtCsdYvAweMv4CD_16syslog_generator13observability6server5route
FN:95,_RNvNtNtCsdYvAweMv4CD_16syslog_generator13observability6server5serve
FN:158,_RNvNtNtCsdYvAweMv4CD_16syslog_generator13observability6server5spawn
FN:121,_RNCNCNCNvNtNtCs3I23rWd8G42_16syslog_generator13observability6server5serve0s2_00Bb_
FN:98,_RNCNCNvNtNtCs3I23rWd8G42_16syslog_generator13observability6server5serve00B9_
FN:102,_RNCNCNvNtNtCs3I23rWd8G42_16syslog_generator13observability6server5serve0s0_0B9_
FN:119,_RNCNCNvNtNtCs3I23rWd8G42_16syslog_generator13observability6server5serve0s2_0B9_
FN:144,_RNCNCNvNtNtCs3I23rWd8G42_16syslog_generator13observability6server5serve0s3_0B9_
FN:101,_RNCNCNvNtNtCs3I23rWd8G42_16syslog_generator13observability6server5serve0s_0B9_
FN:71,_RNCNvNtNtCs3I23rWd8G42_16syslog_generator13observability6server11handle_conn0B7_
FN:95,_RNCNvNtNtCs3I23rWd8G42_16syslog_generator13observability6server5serve0B7_
FN:160,_RNCNvNtNtCs3I23rWd8G42_16syslog_generator13observability6server5spawn0B7_
FN:71,_RNvNtNtCs3I23rWd8G42_16syslog_generator13observability6server11handle_conn
FN:22,_RNvNtNtCs3I23rWd8G42_16syslog_generator13observability6server18parse_request_line
FN:34,_RNvNtNtCs3I23rWd8G42_16syslog_generator13observability6server19build_http_response
FN:47,_RNvNtNtCs3I23rWd8G42_16syslog_generator13observability6server5route
FN:95,_RNvNtNtCs3I23rWd8G42_16syslog_generator13observability6server5serve
FN:158,_RNvNtNtCs3I23rWd8G42_16syslog_generator13observability6server5spawn
FN:194,_RNvNtNtNtCs3I23rWd8G42_16syslog_generator13observability6server5testss_22test_route_metrics_200
FN:226,_RNvNtNtNtCs3I23rWd8G42_16syslog_generator13observability6server5testss_22test_route_non_get_405
FN:219,_RNvNtNtNtCs3I23rWd8G42_16syslog_generator13observability6server5testss_22test_route_unknown_404
FN:283,_RNvNtNtNtCs3I23rWd8G42_16syslog_generator13observability6server5testss_23test_serve_real_get_404
FN:212,_RNvNtNtNtCs3I23rWd8G42_16syslog_generator13observability6server5testss_25test_route_root_alias_200
FN:175,_RNvNtNtNtCs3I23rWd8G42_16syslog_generator13observability6server5testss_26test_parse_request_line_ok
FN:242,_RNvNtNtNtCs3I23rWd8G42_16syslog_generator13observability6server5testss_27test_serve_real_get_metrics
FN:189,_RNvNtNtNtCs3I23rWd8G42_16syslog_generator13observability6server5testss_29test_parse_request_line_empty
FN:317,_RNvNtNtNtCs3I23rWd8G42_16syslog_generator13observability6server5testss_31build_http_response_error_paths
FN:182,_RNvNtNtNtCs3I23rWd8G42_16syslog_generator13observability6server5testss_36test_parse_request_line_strips_query
FN:233,_RNvNtNtNtCs3I23rWd8G42_16syslog_generator13observability6server5testss_39test_build_http_response_content_length
FN:290,_RNCNCNvNtNtNtCs3I23rWd8G42_16syslog_generator13observability6server5testss_23test_serve_real_get_40400Bb_
FN:255,_RNCNCNvNtNtNtCs3I23rWd8G42_16syslog_generator13observability6server5testss_27test_serve_real_get_metrics00Bb_
FN:283,_RNCNvNtNtNtCs3I23rWd8G42_16syslog_generator13observability6server5testss_23test_serve_real_get_4040B9_
FN:242,_RNCNvNtNtNtCs3I23rWd8G42_16syslog_generator13observability6server5testss_27test_serve_real_get_metrics0B9_
FNDA:1,_RNCNCNCNvNtNtCsdYvAweMv4CD_16syslog_generator13observability6server5serve0s2_00Bb_
FNDA:1,_RNCNCNvNtNtCsdYvAweMv4CD_16syslog_generator13observability6server5serve00B9_
FNDA:0,_RNCNCNvNtNtCsdYvAweMv4CD_16syslog_generator13observability6server5serve0s0_0B9_
FNDA:1,_RNCNCNvNtNtCsdYvAweMv4CD_16syslog_generator13observability6server5serve0s2_0B9_
FNDA:3,_RNCNCNvNtNtCsdYvAweMv4CD_16syslog_generator13observability6server5serve0s3_0B9_
FNDA:1,_RNCNCNvNtNtCsdYvAweMv4CD_16syslog_generator13observability6server5serve0s_0B9_
FNDA:2,_RNCNvNtNtCsdYvAweMv4CD_16syslog_generator13observability6server11handle_conn0B7_
FNDA:2,_RNCNvNtNtCsdYvAweMv4CD_16syslog_generator13observability6server5serve0B7_
FNDA:2,_RNCNvNtNtCsdYvAweMv4CD_16syslog_generator13observability6server5spawn0B7_
FNDA:2,_RNvNtNtCsdYvAweMv4CD_16syslog_generator13observability6server11handle_conn
FNDA:2,_RNvNtNtCsdYvAweMv4CD_16syslog_generator13observability6server18parse_request_line
FNDA:2,_RNvNtNtCsdYvAweMv4CD_16syslog_generator13observability6server19build_http_response
FNDA:2,_RNvNtNtCsdYvAweMv4CD_16syslog_generator13observability6server5route
FNDA:2,_RNvNtNtCsdYvAweMv4CD_16syslog_generator13observability6server5serve
FNDA:2,_RNvNtNtCsdYvAweMv4CD_16syslog_generator13observability6server5spawn
FNDA:0,_RNCNCNCNvNtNtCs3I23rWd8G42_16syslog_generator13observability6server5serve0s2_00Bb_
FNDA:0,_RNCNCNvNtNtCs3I23rWd8G42_16syslog_generator13observability6server5serve00B9_
FNDA:0,_RNCNCNvNtNtCs3I23rWd8G42_16syslog_generator13observability6server5serve0s0_0B9_
FNDA:0,_RNCNCNvNtNtCs3I23rWd8G42_16syslog_generator13observability6server5serve0s2_0B9_
FNDA:0,_RNCNCNvNtNtCs3I23rWd8G42_16syslog_generator13observability6server5serve0s3_0B9_
FNDA:0,_RNCNCNvNtNtCs3I23rWd8G42_16syslog_generator13observability6server5serve0s_0B9_
FNDA:2,_RNCNvNtNtCs3I23rWd8G42_16syslog_generator13observability6server11handle_conn0B7_
FNDA:0,_RNCNvNtNtCs3I23rWd8G42_16syslog_generator13observability6server5serve0B7_
FNDA:0,_RNCNvNtNtCs3I23rWd8G42_16syslog_generator13observability6server5spawn0B7_
FNDA:2,_RNvNtNtCs3I23rWd8G42_16syslog_generator13observability6server11handle_conn
FNDA:5,_RNvNtNtCs3I23rWd8G42_16syslog_generator13observability6server18parse_request_line
FNDA:11,_RNvNtNtCs3I23rWd8G42_16syslog_generator13observability6server19build_http_response
FNDA:6,_RNvNtNtCs3I23rWd8G42_16syslog_generator13observability6server5route
FNDA:0,_RNvNtNtCs3I23rWd8G42_16syslog_generator13observability6server5serve
FNDA:0,_RNvNtNtCs3I23rWd8G42_16syslog_generator13observability6server5spawn
FNDA:1,_RNvNtNtNtCs3I23rWd8G42_16syslog_generator13observability6server5testss_22test_route_metrics_200
FNDA:1,_RNvNtNtNtCs3I23rWd8G42_16syslog_generator13observability6server5testss_22test_route_non_get_405
FNDA:1,_RNvNtNtNtCs3I23rWd8G42_16syslog_generator13observability6server5testss_22test_route_unknown_404
FNDA:1,_RNvNtNtNtCs3I23rWd8G42_16syslog_generator13observability6server5testss_23test_serve_real_get_404
FNDA:1,_RNvNtNtNtCs3I23rWd8G42_16syslog_generator13observability6server5testss_25test_route_root_alias_200
FNDA:1,_RNvNtNtNtCs3I23rWd8G42_16syslog_generator13observability6server5testss_26test_parse_request_line_ok
FNDA:1,_RNvNtNtNtCs3I23rWd8G42_16syslog_generator13observability6server5testss_27test_serve_real_get_metrics
FNDA:1,_RNvNtNtNtCs3I23rWd8G42_16syslog_generator13observability6server5testss_29test_parse_request_line_empty
FNDA:1,_RNvNtNtNtCs3I23rWd8G42_16syslog_generator13observability6server5testss_31build_http_response_error_paths
FNDA:1,_RNvNtNtNtCs3I23rWd8G42_16syslog_generator13observability6server5testss_36test_parse_request_line_strips_query
FNDA:1,_RNvNtNtNtCs3I23rWd8G42_16syslog_generator13observability6server5testss_39test_build_http_response_content_length
FNDA:1,_RNCNCNvNtNtNtCs3I23rWd8G42_16syslog_generator13observability6server5testss_23test_serve_real_get_40400Bb_
FNDA:1,_RNCNCNvNtNtNtCs3I23rWd8G42_16syslog_generator13observability6server5testss_27test_serve_real_get_metrics00Bb_
FNDA:1,_RNCNvNtNtNtCs3I23rWd8G42_16syslog_generator13observability6server5testss_23test_serve_real_get_4040B9_
FNDA:1,_RNCNvNtNtNtCs3I23rWd8G42_16syslog_generator13observability6server5testss_27test_serve_real_get_metrics0B9_
FNF:30
FNH:29
DA:22,7
DA:23,7
DA:24,7
DA:25,6
DA:26,6
DA:27,6
DA:29,6
DA:30,6
DA:31,7
DA:34,13
DA:35,13
DA:37,13
DA:39,13
DA:47,8
DA:48,8
DA:49,8
DA:50,4
DA:51,0
DA:52,0
DA:53,0
DA:54,0
DA:57,3
DA:58,3
DA:59,3
DA:60,3
DA:62,1
DA:63,1
DA:64,1
DA:65,1
DA:68,8
DA:71,4
DA:72,4
DA:74,4
DA:75,0
DA:76,4
DA:77,0
DA:79,4
DA:80,4
DA:81,0
DA:82,0
DA:83,0
DA:84,0
DA:87,4
DA:88,4
DA:89,4
DA:95,2
DA:96,2
DA:97,2
DA:98,2
DA:99,1
DA:100,1
DA:101,1
DA:102,1
DA:103,1
DA:108,1
DA:110,3
DA:111,3
DA:112,1
DA:114,1
DA:116,1
DA:117,1
DA:118,1
DA:119,1
DA:121,1
DA:122,1
DA:123,0
DA:125,1
DA:127,1
DA:128,1
DA:129,1
DA:130,0
DA:135,1
DA:137,3
DA:138,2
DA:139,2
DA:140,2
DA:141,2
DA:142,2
DA:144,3
DA:146,0
DA:147,0
DA:148,0
DA:153,2
DA:158,2
DA:159,2
DA:160,2
DA:161,2
DA:162,1
DA:163,1
DA:164,2
DA:165,2
DA:175,1
DA:176,1
DA:177,1
DA:178,1
DA:179,1
DA:182,1
DA:183,1
DA:184,1
DA:185,1
DA:186,1
DA:189,1
DA:190,1
DA:191,1
DA:194,1
DA:195,1
DA:198,1
DA:199,1
DA:200,1
DA:201,1
DA:202,1
DA:203,1
DA:204,1
DA:206,1
DA:208,1
DA:209,1
DA:212,1
DA:213,1
DA:214,1
DA:215,1
DA:216,1
DA:219,1
DA:220,1
DA:221,1
DA:222,1
DA:223,1
DA:226,1
DA:227,1
DA:228,1
DA:229,1
DA:230,1
DA:233,1
DA:234,1
DA:235,1
DA:236,1
DA:237,1
DA:242,1
DA:243,1
DA:245,1
DA:246,1
DA:247,1
DA:248,1
DA:249,1
DA:250,1
DA:251,1
DA:252,1
DA:253,1
DA:255,1
DA:257,2
DA:258,2
DA:259,2
DA:260,1
DA:261,1
DA:262,1
DA:266,0
DA:268,1
DA:269,1
DA:270,1
DA:271,1
DA:272,1
DA:273,1
DA:274,1
DA:275,1
DA:276,1
DA:277,1
DA:278,1
DA:279,1
DA:283,1
DA:284,1
DA:285,1
DA:286,1
DA:287,1
DA:288,1
DA:289,1
DA:290,1
DA:292,2
DA:293,2
DA:294,2
DA:295,1
DA:296,1
DA:297,1
DA:301,0
DA:302,1
DA:303,1
DA:304,1
DA:305,1
DA:306,1
DA:307,1
DA:308,1
DA:309,1
DA:310,1
DA:311,1
DA:312,1
DA:317,1
DA:319,1
DA:320,1
DA:321,1
DA:322,1
DA:323,1
DA:326,1
DA:327,1
DA:328,1
DA:331,1
DA:332,1
DA:335,1
DA:336,1
DA:337,1
DA:338,1
BRF:0
BRH:0
LF:222
LH:204
end_of_record
SF:/private/tmp/pr17a-worktree/src/payload.rs
FN:37,_RNvNtCsdYvAweMv4CD_16syslog_generator7payload10derive_rng
FN:216,_RNvNtCsdYvAweMv4CD_16syslog_generator7payload12int_in_range
FN:243,_RNvNtCsdYvAweMv4CD_16syslog_generator7payload19datetime_now_jitter
FN:252,_RNvNtCsdYvAweMv4CD_16syslog_generator7payload22datetime_now_jitter_at
FN:83,_RNvNtCsdYvAweMv4CD_16syslog_generator7payload5faker
FN:293,_RNCNvNtCsdYvAweMv4CD_16syslog_generator7payload10zipf_index0B5_
FN:270,_RNCNvNtCsdYvAweMv4CD_16syslog_generator7payload14weighted_index0B5_
FN:387,_RNCNvNtCsdYvAweMv4CD_16syslog_generator7payload9gen_class0B5_
FN:408,_RNCNvNtCsdYvAweMv4CD_16syslog_generator7payload9gen_classs_0B5_
FN:289,_RNvNtCsdYvAweMv4CD_16syslog_generator7payload10zipf_index
FN:299,_RNvNtCsdYvAweMv4CD_16syslog_generator7payload11pad_to_size
FN:22,_RNvNtCsdYvAweMv4CD_16syslog_generator7payload12fresh_os_rng
FN:229,_RNvNtCsdYvAweMv4CD_16syslog_generator7payload13random_string
FN:323,_RNvNtCsdYvAweMv4CD_16syslog_generator7payload14gen_from_regex
FN:269,_RNvNtCsdYvAweMv4CD_16syslog_generator7payload14weighted_index
FN:205,_RNvNtCsdYvAweMv4CD_16syslog_generator7payload14write_hex_pair
FN:335,_RNvNtCsdYvAweMv4CD_16syslog_generator7payload7gen_hir
FN:167,_RNvNtCsdYvAweMv4CD_16syslog_generator7payload7uuid_v4
FN:376,_RNvNtCsdYvAweMv4CD_16syslog_generator7payload9gen_class
FN:293,_RNCNvNtCs3I23rWd8G42_16syslog_generator7payload10zipf_index0B5_
FN:270,_RNCNvNtCs3I23rWd8G42_16syslog_generator7payload14weighted_index0B5_
FN:387,_RNCNvNtCs3I23rWd8G42_16syslog_generator7payload9gen_class0B5_
FN:408,_RNCNvNtCs3I23rWd8G42_16syslog_generator7payload9gen_classs_0B5_
FN:452,_RNCNvNtNtCs3I23rWd8G42_16syslog_generator7payload5testss_16test_ipv4_format0B7_
FN:455,_RNCNvNtNtCs3I23rWd8G42_16syslog_generator7payload5testss_16test_ipv4_formats_0B7_
FN:509,_RNCNvNtNtCs3I23rWd8G42_16syslog_generator7payload5testss_22test_random_string_len0B7_
FN:478,_RNCNvNtNtCs3I23rWd8G42_16syslog_generator7payload5testss_24test_mac_and_ipv6_format0B7_
FN:442,_RNCNvNtNtCs3I23rWd8G42_16syslog_generator7payload5testss_31test_seed_different_seq_differs0B7_
FN:443,_RNCNvNtNtCs3I23rWd8G42_16syslog_generator7payload5testss_31test_seed_different_seq_differss_0B7_
FN:83,_RNvNtCs3I23rWd8G42_16syslog_generator7payload5faker
FN:37,_RNvNtCs3I23rWd8G42_16syslog_generator7payload10derive_rng
FN:216,_RNvNtCs3I23rWd8G42_16syslog_generator7payload12int_in_range
FN:448,_RNvNtNtCs3I23rWd8G42_16syslog_generator7payload5testss_16test_ipv4_format
FN:581,_RNvNtNtCs3I23rWd8G42_16syslog_generator7payload5testss_16test_pad_to_size
FN:460,_RNvNtNtCs3I23rWd8G42_16syslog_generator7payload5testss_19test_uuid_v4_format
FN:503,_RNvNtNtCs3I23rWd8G42_16syslog_generator7payload5testss_22test_random_string_len
FN:561,_RNvNtNtCs3I23rWd8G42_16syslog_generator7payload5testss_22test_regex_alternation
FN:484,_RNvNtNtCs3I23rWd8G42_16syslog_generator7payload5testss_24test_int_in_range_bounds
FN:474,_RNvNtNtCs3I23rWd8G42_16syslog_generator7payload5testss_24test_mac_and_ipv6_format
FN:494,_RNvNtNtCs3I23rWd8G42_16syslog_generator7payload5testss_25test_http_status_is_known
FN:539,_RNvNtNtCs3I23rWd8G42_16syslog_generator7payload5testss_26test_regex_matches_pattern
FN:528,_RNvNtNtCs3I23rWd8G42_16syslog_generator7payload5testss_27test_zipf_hot_key_dominates
FN:437,_RNvNtNtCs3I23rWd8G42_16syslog_generator7payload5testss_31test_seed_different_seq_differs
FN:553,_RNvNtNtCs3I23rWd8G42_16syslog_generator7payload5testss_32test_regex_deterministic_by_seed
FN:513,_RNvNtNtCs3I23rWd8G42_16syslog_generator7payload5testss_33test_weighted_index_favours_heavy
FN:428,_RNvNtNtCs3I23rWd8G42_16syslog_generator7payload5testss_35test_seed_determinism_same_seed_seq
FN:575,_RNvNtNtCs3I23rWd8G42_16syslog_generator7payload5testss_39test_regex_invalid_pattern_yields_empty
FN:243,_RNvNtCs3I23rWd8G42_16syslog_generator7payload19datetime_now_jitter
FN:252,_RNvNtCs3I23rWd8G42_16syslog_generator7payload22datetime_now_jitter_at
FN:289,_RNvNtCs3I23rWd8G42_16syslog_generator7payload10zipf_index
FN:299,_RNvNtCs3I23rWd8G42_16syslog_generator7payload11pad_to_size
FN:22,_RNvNtCs3I23rWd8G42_16syslog_generator7payload12fresh_os_rng
FN:229,_RNvNtCs3I23rWd8G42_16syslog_generator7payload13random_string
FN:323,_RNvNtCs3I23rWd8G42_16syslog_generator7payload14gen_from_regex
FN:269,_RNvNtCs3I23rWd8G42_16syslog_generator7payload14weighted_index
FN:205,_RNvNtCs3I23rWd8G42_16syslog_generator7payload14write_hex_pair
FN:335,_RNvNtCs3I23rWd8G42_16syslog_generator7payload7gen_hir
FN:167,_RNvNtCs3I23rWd8G42_16syslog_generator7payload7uuid_v4
FN:376,_RNvNtCs3I23rWd8G42_16syslog_generator7payload9gen_class
FNDA:8150,_RNvNtCsdYvAweMv4CD_16syslog_generator7payload10derive_rng
FNDA:8563,_RNvNtCsdYvAweMv4CD_16syslog_generator7payload12int_in_range
FNDA:0,_RNvNtCsdYvAweMv4CD_16syslog_generator7payload19datetime_now_jitter
FNDA:6650,_RNvNtCsdYvAweMv4CD_16syslog_generator7payload22datetime_now_jitter_at
FNDA:59795,_RNvNtCsdYvAweMv4CD_16syslog_generator7payload5faker
FNDA:15000,_RNCNvNtCsdYvAweMv4CD_16syslog_generator7payload10zipf_index0B5_
FNDA:15150,_RNCNvNtCsdYvAweMv4CD_16syslog_generator7payload14weighted_index0B5_
FNDA:1040,_RNCNvNtCsdYvAweMv4CD_16syslog_generator7payload9gen_class0B5_
FNDA:0,_RNCNvNtCsdYvAweMv4CD_16syslog_generator7payload9gen_classs_0B5_
FNDA:3000,_RNvNtCsdYvAweMv4CD_16syslog_generator7payload10zipf_index
FNDA:1,_RNvNtCsdYvAweMv4CD_16syslog_generator7payload11pad_to_size
FNDA:1427,_RNvNtCsdYvAweMv4CD_16syslog_generator7payload12fresh_os_rng
FNDA:101,_RNvNtCsdYvAweMv4CD_16syslog_generator7payload13random_string
FNDA:90,_RNvNtCsdYvAweMv4CD_16syslog_generator7payload14gen_from_regex
FNDA:3060,_RNvNtCsdYvAweMv4CD_16syslog_generator7payload14weighted_index
FNDA:107168,_RNvNtCsdYvAweMv4CD_16syslog_generator7payload14write_hex_pair
FNDA:990,_RNvNtCsdYvAweMv4CD_16syslog_generator7payload7gen_hir
FNDA:6698,_RNvNtCsdYvAweMv4CD_16syslog_generator7payload7uuid_v4
FNDA:720,_RNvNtCsdYvAweMv4CD_16syslog_generator7payload9gen_class
FNDA:25000,_RNCNvNtCs3I23rWd8G42_16syslog_generator7payload10zipf_index0B5_
FNDA:29300,_RNCNvNtCs3I23rWd8G42_16syslog_generator7payload14weighted_index0B5_
FNDA:361,_RNCNvNtCs3I23rWd8G42_16syslog_generator7payload9gen_class0B5_
FNDA:0,_RNCNvNtCs3I23rWd8G42_16syslog_generator7payload9gen_classs_0B5_
FNDA:200,_RNCNvNtNtCs3I23rWd8G42_16syslog_generator7payload5testss_16test_ipv4_format0B7_
FNDA:200,_RNCNvNtNtCs3I23rWd8G42_16syslog_generator7payload5testss_16test_ipv4_formats_0B7_
FNDA:16,_RNCNvNtNtCs3I23rWd8G42_16syslog_generator7payload5testss_22test_random_string_len0B7_
FNDA:6,_RNCNvNtNtCs3I23rWd8G42_16syslog_generator7payload5testss_24test_mac_and_ipv6_format0B7_
FNDA:5,_RNCNvNtNtCs3I23rWd8G42_16syslog_generator7payload5testss_31test_seed_different_seq_differs0B7_
FNDA:5,_RNCNvNtNtCs3I23rWd8G42_16syslog_generator7payload5testss_31test_seed_different_seq_differss_0B7_
FNDA:694,_RNvNtCs3I23rWd8G42_16syslog_generator7payload5faker
FNDA:10809,_RNvNtCs3I23rWd8G42_16syslog_generator7payload10derive_rng
FNDA:9466,_RNvNtCs3I23rWd8G42_16syslog_generator7payload12int_in_range
FNDA:1,_RNvNtNtCs3I23rWd8G42_16syslog_generator7payload5testss_16test_ipv4_format
FNDA:1,_RNvNtNtCs3I23rWd8G42_16syslog_generator7payload5testss_16test_pad_to_size
FNDA:1,_RNvNtNtCs3I23rWd8G42_16syslog_generator7payload5testss_19test_uuid_v4_format
FNDA:1,_RNvNtNtCs3I23rWd8G42_16syslog_generator7payload5testss_22test_random_string_len
FNDA:1,_RNvNtNtCs3I23rWd8G42_16syslog_generator7payload5testss_22test_regex_alternation
FNDA:1,_RNvNtNtCs3I23rWd8G42_16syslog_generator7payload5testss_24test_int_in_range_bounds
FNDA:1,_RNvNtNtCs3I23rWd8G42_16syslog_generator7payload5testss_24test_mac_and_ipv6_format
FNDA:1,_RNvNtNtCs3I23rWd8G42_16syslog_generator7payload5testss_25test_http_status_is_known
FNDA:1,_RNvNtNtCs3I23rWd8G42_16syslog_generator7payload5testss_26test_regex_matches_pattern
FNDA:1,_RNvNtNtCs3I23rWd8G42_16syslog_generator7payload5testss_27test_zipf_hot_key_dominates
FNDA:1,_RNvNtNtCs3I23rWd8G42_16syslog_generator7payload5testss_31test_seed_different_seq_differs
FNDA:1,_RNvNtNtCs3I23rWd8G42_16syslog_generator7payload5testss_32test_regex_deterministic_by_seed
FNDA:1,_RNvNtNtCs3I23rWd8G42_16syslog_generator7payload5testss_33test_weighted_index_favours_heavy
FNDA:1,_RNvNtNtCs3I23rWd8G42_16syslog_generator7payload5testss_35test_seed_determinism_same_seed_seq
FNDA:1,_RNvNtNtCs3I23rWd8G42_16syslog_generator7payload5testss_39test_regex_invalid_pattern_yields_empty
FNDA:0,_RNvNtCs3I23rWd8G42_16syslog_generator7payload19datetime_now_jitter
FNDA:9,_RNvNtCs3I23rWd8G42_16syslog_generator7payload22datetime_now_jitter_at
FNDA:5000,_RNvNtCs3I23rWd8G42_16syslog_generator7payload10zipf_index
FNDA:256,_RNvNtCs3I23rWd8G42_16syslog_generator7payload11pad_to_size
FNDA:5007,_RNvNtCs3I23rWd8G42_16syslog_generator7payload12fresh_os_rng
FNDA:4,_RNvNtCs3I23rWd8G42_16syslog_generator7payload13random_string
FNDA:251,_RNvNtCs3I23rWd8G42_16syslog_generator7payload14gen_from_regex
FNDA:7100,_RNvNtCs3I23rWd8G42_16syslog_generator7payload14weighted_index
FNDA:4448,_RNvNtCs3I23rWd8G42_16syslog_generator7payload14write_hex_pair
FNDA:965,_RNvNtCs3I23rWd8G42_16syslog_generator7payload7gen_hir
FNDA:278,_RNvNtCs3I23rWd8G42_16syslog_generator7payload7uuid_v4
FNDA:361,_RNvNtCs3I23rWd8G42_16syslog_generator7payload9gen_class
FNF:40
FNH:38
DA:22,6434
DA:23,6434
DA:24,6434
DA:25,6434
DA:37,18959
DA:38,18959
DA:39,12525
DA:41,12525
DA:42,12525
DA:43,12525
DA:44,12525
DA:45,12525
DA:47,6434
DA:49,18959
DA:83,60489
DA:84,60489
DA:85,60489
DA:87,7014
DA:88,7014
DA:89,7014
DA:91,7014
DA:92,7014
DA:93,7014
DA:94,7014
DA:97,7014
DA:99,53475
DA:102,6633
DA:103,53064
DA:104,53064
DA:105,46431
DA:106,46431
DA:107,53064
DA:110,6633
DA:112,46842
DA:114,6634
DA:115,39804
DA:116,39804
DA:117,33170
DA:118,33170
DA:119,39804
DA:121,6634
DA:123,40208
DA:124,33232
DA:126,6632
DA:127,6632
DA:128,6632
DA:130,6632
DA:131,6632
DA:133,6632
DA:135,26600
DA:136,19948
DA:137,13315
DA:139,6632
DA:140,6632
DA:141,6632
DA:142,6632
DA:143,6632
DA:144,6632
DA:145,6632
DA:146,6632
DA:147,6632
DA:148,6632
DA:149,6632
DA:151,6632
DA:152,6632
DA:153,6632
DA:155,6632
DA:157,6683
DA:158,0
DA:160,60489
DA:167,6976
DA:168,6976
DA:169,6976
DA:170,6976
DA:171,6976
DA:174,6976
DA:176,6976
DA:177,6976
DA:178,6976
DA:179,6976
DA:180,6976
DA:182,6976
DA:183,6976
DA:184,6976
DA:186,6976
DA:187,6976
DA:188,6976
DA:190,6976
DA:191,6976
DA:192,6976
DA:194,41856
DA:195,41856
DA:196,41856
DA:197,6976
DA:198,6976
DA:205,111616
DA:207,111616
DA:208,111616
DA:209,111616
DA:216,18029
DA:217,18029
DA:218,122
DA:220,17907
DA:222,18029
DA:229,105
DA:231,105
DA:232,1061
DA:233,1061
DA:234,1061
DA:235,105
DA:236,105
DA:243,0
DA:245,0
DA:246,0
DA:252,6659
DA:253,6659
DA:254,6659
DA:255,6659
DA:256,6659
DA:258,6659
DA:259,0
DA:261,6659
DA:263,6659
DA:264,6659
DA:265,6659
DA:269,10160
DA:270,44450
DA:271,10160
DA:272,0
DA:273,10160
DA:274,10160
DA:275,18564
DA:276,18564
DA:277,18404
DA:278,10160
DA:279,8244
DA:280,8244
DA:281,160
DA:283,0
DA:284,10160
DA:289,8000
DA:290,8000
DA:291,0
DA:292,8000
DA:293,40000
DA:294,8000
DA:295,8000
DA:299,257
DA:300,257
DA:301,2
DA:302,255
DA:303,255
DA:304,8565649
DA:306,8565394
DA:308,255
DA:309,257
DA:323,341
DA:324,341
DA:325,340
DA:326,340
DA:327,340
DA:328,340
DA:330,1
DA:332,341
DA:335,1955
DA:337,1955
DA:338,0
DA:339,292
DA:340,292
DA:341,292
DA:342,292
DA:343,292
DA:344,1081
DA:345,242
DA:346,242
DA:347,242
DA:348,242
DA:349,242
DA:350,242
DA:351,242
DA:352,2
DA:354,240
DA:356,1081
DA:357,1081
DA:358,1081
DA:360,0
DA:361,141
DA:362,335
DA:363,335
DA:364,335
DA:366,199
DA:367,199
DA:368,199
DA:369,199
DA:370,199
DA:373,1955
DA:376,1081
DA:378,1081
DA:379,1081
DA:380,1081
DA:381,1081
DA:382,0
DA:383,1081
DA:385,1081
DA:386,1081
DA:387,1401
DA:388,1081
DA:389,1081
DA:390,1203
DA:391,1203
DA:392,1203
DA:393,1081
DA:394,1081
DA:395,1081
DA:396,1081
DA:397,122
DA:398,122
DA:401,0
DA:402,0
DA:403,0
DA:404,0
DA:405,0
DA:406,0
DA:407,0
DA:408,0
DA:409,0
DA:410,0
DA:411,0
DA:412,0
DA:413,0
DA:414,0
DA:415,0
DA:416,0
DA:417,0
DA:421,1081
DA:428,1
DA:430,1
DA:431,1
DA:432,1
DA:433,1
DA:434,1
DA:437,1
DA:439,1
DA:440,1
DA:442,5
DA:443,5
DA:444,1
DA:445,1
DA:448,1
DA:449,1
DA:450,1
DA:451,50
DA:452,200
DA:453,50
DA:454,50
DA:455,200
DA:457,1
DA:460,1
DA:461,1
DA:462,1
DA:463,1
DA:464,1
DA:465,1
DA:466,1
DA:467,1
DA:468,1
DA:471,1
DA:474,1
DA:475,1
DA:476,1
DA:477,1
DA:478,6
DA:479,1
DA:480,1
DA:481,1
DA:484,1
DA:485,1
DA:486,1
DA:487,200
DA:488,200
DA:490,1
DA:491,1
DA:494,1
DA:495,1
DA:496,1
DA:497,50
DA:498,50
DA:500,1
DA:503,1
DA:504,1
DA:505,1
DA:506,1
DA:507,1
DA:508,1
DA:509,16
DA:510,1
DA:513,1
DA:514,1
DA:516,1
DA:517,100
DA:520,1
DA:521,2000
DA:522,2000
DA:523,2000
DA:524,1
DA:525,1
DA:528,1
DA:529,1
DA:530,1
DA:531,5000
DA:532,5000
DA:533,5000
DA:535,1
DA:536,1
DA:539,1
DA:541,1
DA:542,49
DA:543,49
DA:544,49
DA:545,49
DA:546,49
DA:550,1
DA:553,1
DA:554,1
DA:555,1
DA:556,1
DA:557,1
DA:558,1
DA:561,1
DA:562,1
DA:563,1
DA:564,199
DA:565,199
DA:566,199
DA:567,199
DA:568,199
DA:571,1
DA:572,1
DA:575,1
DA:576,1
DA:577,1
DA:578,1
DA:581,1
DA:582,1
DA:583,1
DA:584,1
DA:585,1
DA:587,1
DA:588,1
DA:589,1
BRF:0
BRH:0
LF:360
LH:331
end_of_record
SF:/private/tmp/pr17a-worktree/src/payload_proptests.rs
FN:85,_RNCNCNvNtCs3I23rWd8G42_16syslog_generator17payload_proptestss_28prop_faker_ipv4_valid_formats_00B7_
FN:61,_RNCNCNvNtCs3I23rWd8G42_16syslog_generator17payload_proptestss_29prop_pad_to_size_exact_targets_00B7_
FN:17,_RNvNtCs3I23rWd8G42_16syslog_generator17payload_proptestss_17prop_int_in_range
FN:34,_RNvNtCs3I23rWd8G42_16syslog_generator17payload_proptestss_21prop_seed_determinism
FN:94,_RNvNtCs3I23rWd8G42_16syslog_generator17payload_proptestss_25prop_faker_uuid_v4_format
FN:78,_RNvNtCs3I23rWd8G42_16syslog_generator17payload_proptestss_28prop_faker_ipv4_valid_format
FN:54,_RNvNtCs3I23rWd8G42_16syslog_generator17payload_proptestss_29prop_pad_to_size_exact_target
FN:122,_RNvNtCs3I23rWd8G42_16syslog_generator17payload_proptestss_42prop_pad_to_size_zero_target_no_truncation
FNDA:0,_RNCNCNvNtCs3I23rWd8G42_16syslog_generator17payload_proptestss_28prop_faker_ipv4_valid_formats_00B7_
FNDA:135617,_RNCNCNvNtCs3I23rWd8G42_16syslog_generator17payload_proptestss_29prop_pad_to_size_exact_targets_00B7_
FNDA:1,_RNvNtCs3I23rWd8G42_16syslog_generator17payload_proptestss_17prop_int_in_range
FNDA:1,_RNvNtCs3I23rWd8G42_16syslog_generator17payload_proptestss_21prop_seed_determinism
FNDA:1,_RNvNtCs3I23rWd8G42_16syslog_generator17payload_proptestss_25prop_faker_uuid_v4_format
FNDA:1,_RNvNtCs3I23rWd8G42_16syslog_generator17payload_proptestss_28prop_faker_ipv4_valid_format
FNDA:1,_RNvNtCs3I23rWd8G42_16syslog_generator17payload_proptestss_29prop_pad_to_size_exact_target
FNDA:1,_RNvNtCs3I23rWd8G42_16syslog_generator17payload_proptestss_42prop_pad_to_size_zero_target_no_truncation
FNF:8
FNH:7
DA:17,1
DA:18,1
DA:19,1
DA:20,1
DA:21,1
DA:22,1
DA:23,1
DA:24,1
DA:25,1
DA:26,1
DA:27,1
DA:28,1
DA:34,1
DA:35,1
DA:36,1
DA:37,1
DA:38,1
DA:39,1
DA:40,1
DA:41,1
DA:42,1
DA:43,1
DA:44,1
DA:45,1
DA:54,1
DA:55,1
DA:56,1
DA:57,1
DA:58,1
DA:59,1
DA:60,1
DA:61,135617
DA:62,1
DA:63,1
DA:64,1
DA:65,1
DA:66,1
DA:67,1
DA:68,1
DA:69,1
DA:70,1
DA:71,1
DA:72,1
DA:73,1
DA:78,1
DA:79,1
DA:80,1
DA:81,1
DA:82,1
DA:83,1
DA:84,1
DA:85,1
DA:86,1
DA:87,1
DA:88,1
DA:89,1
DA:94,1
DA:95,1
DA:96,1
DA:97,1
DA:98,1
DA:99,1
DA:100,1
DA:101,1
DA:102,1
DA:103,1
DA:104,1
DA:105,1
DA:106,1
DA:107,1
DA:108,1
DA:109,1
DA:110,1
DA:111,1
DA:112,1
DA:113,1
DA:114,1
DA:115,1
DA:116,1
DA:122,1
DA:123,1
DA:124,1
DA:125,1
DA:126,1
DA:130,1
BRF:0
BRH:0
LF:87
LH:86
end_of_record
SF:/private/tmp/pr17a-worktree/src/schema_check.rs
FN:52,_RNvNtCsdYvAweMv4CD_16syslog_generator12schema_check23validate_against_schema
FN:44,_RNvNtCsdYvAweMv4CD_16syslog_generator12schema_check32validate_against_embedded_schema
FN:55,_RNCNvNtCsdYvAweMv4CD_16syslog_generator12schema_check23validate_against_schema0B5_
FN:70,_RNCNvNtCsdYvAweMv4CD_16syslog_generator12schema_check23validate_against_schemas0_0B5_
FN:75,_RNCNvNtCsdYvAweMv4CD_16syslog_generator12schema_check23validate_against_schemas1_0B5_
FN:60,_RNCNvNtCsdYvAweMv4CD_16syslog_generator12schema_check23validate_against_schemas_0B5_
FN:46,_RNCNvNtCsdYvAweMv4CD_16syslog_generator12schema_check32validate_against_embedded_schema0B5_
FN:52,_RNvNtCs3I23rWd8G42_16syslog_generator12schema_check23validate_against_schema
FN:44,_RNvNtCs3I23rWd8G42_16syslog_generator12schema_check32validate_against_embedded_schema
FN:55,_RNCNvNtCs3I23rWd8G42_16syslog_generator12schema_check23validate_against_schema0B5_
FN:70,_RNCNvNtCs3I23rWd8G42_16syslog_generator12schema_check23validate_against_schemas0_0B5_
FN:75,_RNCNvNtCs3I23rWd8G42_16syslog_generator12schema_check23validate_against_schemas1_0B5_
FN:60,_RNCNvNtCs3I23rWd8G42_16syslog_generator12schema_check23validate_against_schemas_0B5_
FN:46,_RNCNvNtCs3I23rWd8G42_16syslog_generator12schema_check32validate_against_embedded_schema0B5_
FN:86,_RNvNtNtCs3I23rWd8G42_16syslog_generator12schema_check5tests15minimal_profile
FN:112,_RNvNtNtCs3I23rWd8G42_16syslog_generator12schema_check5testss_25empty_phases_fails_schema
FN:164,_RNvNtNtCs3I23rWd8G42_16syslog_generator12schema_check5testss_26unknown_field_fails_schema
FN:144,_RNvNtNtCs3I23rWd8G42_16syslog_generator12schema_check5testss_30invalid_transport_fails_schema
FN:152,_RNvNtNtCs3I23rWd8G42_16syslog_generator12schema_check5testss_34facility_out_of_range_fails_schema
FN:106,_RNvNtNtCs3I23rWd8G42_16syslog_generator12schema_check5testss_38minimal_profile_passes_embedded_schema
FN:134,_RNvNtNtCs3I23rWd8G42_16syslog_generator12schema_check5testss_41phase_without_content_source_fails_schema
FNDA:33,_RNvNtCsdYvAweMv4CD_16syslog_generator12schema_check23validate_against_schema
FNDA:33,_RNvNtCsdYvAweMv4CD_16syslog_generator12schema_check32validate_against_embedded_schema
FNDA:0,_RNCNvNtCsdYvAweMv4CD_16syslog_generator12schema_check23validate_against_schema0B5_
FNDA:1,_RNCNvNtCsdYvAweMv4CD_16syslog_generator12schema_check23validate_against_schemas0_0B5_
FNDA:1,_RNCNvNtCsdYvAweMv4CD_16syslog_generator12schema_check23validate_against_schemas1_0B5_
FNDA:0,_RNCNvNtCsdYvAweMv4CD_16syslog_generator12schema_check23validate_against_schemas_0B5_
FNDA:0,_RNCNvNtCsdYvAweMv4CD_16syslog_generator12schema_check32validate_against_embedded_schema0B5_
FNDA:5,_RNvNtCs3I23rWd8G42_16syslog_generator12schema_check23validate_against_schema
FNDA:5,_RNvNtCs3I23rWd8G42_16syslog_generator12schema_check32validate_against_embedded_schema
FNDA:0,_RNCNvNtCs3I23rWd8G42_16syslog_generator12schema_check23validate_against_schema0B5_
FNDA:4,_RNCNvNtCs3I23rWd8G42_16syslog_generator12schema_check23validate_against_schemas0_0B5_
FNDA:4,_RNCNvNtCs3I23rWd8G42_16syslog_generator12schema_check23validate_against_schemas1_0B5_
FNDA:0,_RNCNvNtCs3I23rWd8G42_16syslog_generator12schema_check23validate_against_schemas_0B5_
FNDA:0,_RNCNvNtCs3I23rWd8G42_16syslog_generator12schema_check32validate_against_embedded_schema0B5_
FNDA:6,_RNvNtNtCs3I23rWd8G42_16syslog_generator12schema_check5tests15minimal_profile
FNDA:1,_RNvNtNtCs3I23rWd8G42_16syslog_generator12schema_check5testss_25empty_phases_fails_schema
FNDA:1,_RNvNtNtCs3I23rWd8G42_16syslog_generator12schema_check5testss_26unknown_field_fails_schema
FNDA:1,_RNvNtNtCs3I23rWd8G42_16syslog_generator12schema_check5testss_30invalid_transport_fails_schema
FNDA:1,_RNvNtNtCs3I23rWd8G42_16syslog_generator12schema_check5testss_34facility_out_of_range_fails_schema
FNDA:1,_RNvNtNtCs3I23rWd8G42_16syslog_generator12schema_check5testss_38minimal_profile_passes_embedded_schema
FNDA:1,_RNvNtNtCs3I23rWd8G42_16syslog_generator12schema_check5testss_41phase_without_content_source_fails_schema
FNF:14
FNH:11
DA:44,38
DA:45,38
DA:46,38
DA:47,38
DA:48,38
DA:52,38
DA:54,38
DA:55,38
DA:59,38
DA:60,38
DA:64,38
DA:65,38
DA:66,33
DA:67,5
DA:70,5
DA:71,5
DA:72,5
DA:73,5
DA:74,5
DA:75,5
DA:76,5
DA:77,5
DA:78,5
DA:79,38
DA:86,6
DA:87,6
DA:88,6
DA:89,6
DA:90,6
DA:91,6
DA:92,6
DA:93,6
DA:94,6
DA:95,6
DA:96,6
DA:97,6
DA:98,6
DA:99,6
DA:100,6
DA:101,6
DA:102,6
DA:103,6
DA:106,1
DA:107,1
DA:108,1
DA:109,1
DA:112,1
DA:113,1
DA:114,1
DA:115,1
DA:116,1
DA:117,1
DA:118,1
DA:122,1
DA:123,1
DA:124,0
DA:125,0
DA:129,0
DA:131,1
DA:134,1
DA:135,1
DA:136,1
DA:137,1
DA:138,1
DA:139,1
DA:140,1
DA:141,1
DA:144,1
DA:145,1
DA:146,1
DA:147,1
DA:148,1
DA:149,1
DA:152,1
DA:153,1
DA:154,1
DA:155,1
DA:156,1
DA:157,1
DA:158,1
DA:160,1
DA:161,1
DA:164,1
DA:165,1
DA:166,1
DA:170,1
DA:171,1
DA:172,1
DA:174,1
DA:175,1
DA:176,1
DA:177,1
DA:178,1
DA:181,1
DA:182,1
BRF:0
BRH:0
LF:100
LH:94
end_of_record
SF:/private/tmp/pr17a-worktree/src/shutdown.rs
FN:119,_RNCNCNvNtCsdYvAweMv4CD_16syslog_generator8shutdown19graceful_drain_wait00B7_
FN:22,_RNCNvNtCsdYvAweMv4CD_16syslog_generator8shutdown17shutdown_listener0B5_
FN:116,_RNCNvNtCsdYvAweMv4CD_16syslog_generator8shutdown19graceful_drain_wait0B5_
FN:95,_RNCNvNtCsdYvAweMv4CD_16syslog_generator8shutdown20run_sigint_only_loop0B5_
FN:74,_RNvNtCsdYvAweMv4CD_16syslog_generator8shutdown13handle_signal
FN:22,_RNvNtCsdYvAweMv4CD_16syslog_generator8shutdown17shutdown_listener
FN:112,_RNvNtCsdYvAweMv4CD_16syslog_generator8shutdown19graceful_drain_wait
FN:95,_RNvNtCsdYvAweMv4CD_16syslog_generator8shutdown20run_sigint_only_loop
FN:176,_RNvNtNtCs3I23rWd8G42_16syslog_generator8shutdown5testss_26v10_4_0_drain_wait_timeout
FN:160,_RNvNtNtCs3I23rWd8G42_16syslog_generator8shutdown5testss_34v10_4_0_drain_wait_fast_handles_ok
FN:152,_RNvNtNtCs3I23rWd8G42_16syslog_generator8shutdown5testss_35v10_4_0_drain_wait_empty_handles_ok
FN:264,_RNvNtNtCs3I23rWd8G42_16syslog_generator8shutdown5testss_38pr_2_handle_signal_first_press_cancels
FN:240,_RNvNtNtCs3I23rWd8G42_16syslog_generator8shutdown5testss_39v10_4_0_shutdown_listener_cancels_token
FN:195,_RNvNtNtCs3I23rWd8G42_16syslog_generator8shutdown5testss_42v10_4_0_drain_wait_propagates_sender_error
FN:212,_RNvNtNtCs3I23rWd8G42_16syslog_generator8shutdown5testss_45v10_4_0_drain_wait_increments_timeout_counter
FN:282,_RNvNtNtCs3I23rWd8G42_16syslog_generator8shutdown5testss_53pr_2_handle_signal_counter_shared_across_signal_kinds
FN:305,_RNvNtNtCs3I23rWd8G42_16syslog_generator8shutdown5testss_55graceful_drain_wait_returns_task_join_on_aborted_handle
FN:164,_RNCNCNCNvNtNtCs3I23rWd8G42_16syslog_generator8shutdown5testss_34v10_4_0_drain_wait_fast_handles_ok000Bb_
FN:180,_RNCNCNvNtNtCs3I23rWd8G42_16syslog_generator8shutdown5testss_26v10_4_0_drain_wait_timeout00B9_
FN:163,_RNCNCNvNtNtCs3I23rWd8G42_16syslog_generator8shutdown5testss_34v10_4_0_drain_wait_fast_handles_ok00B9_
FN:198,_RNCNCNvNtNtCs3I23rWd8G42_16syslog_generator8shutdown5testss_42v10_4_0_drain_wait_propagates_sender_error00B9_
FN:222,_RNCNCNvNtNtCs3I23rWd8G42_16syslog_generator8shutdown5testss_45v10_4_0_drain_wait_increments_timeout_counter00B9_
FN:309,_RNCNCNvNtNtCs3I23rWd8G42_16syslog_generator8shutdown5testss_55graceful_drain_wait_returns_task_join_on_aborted_handle00B9_
FN:176,_RNCNvNtNtCs3I23rWd8G42_16syslog_generator8shutdown5testss_26v10_4_0_drain_wait_timeout0B7_
FN:160,_RNCNvNtNtCs3I23rWd8G42_16syslog_generator8shutdown5testss_34v10_4_0_drain_wait_fast_handles_ok0B7_
FN:152,_RNCNvNtNtCs3I23rWd8G42_16syslog_generator8shutdown5testss_35v10_4_0_drain_wait_empty_handles_ok0B7_
FN:240,_RNCNvNtNtCs3I23rWd8G42_16syslog_generator8shutdown5testss_39v10_4_0_shutdown_listener_cancels_token0B7_
FN:195,_RNCNvNtNtCs3I23rWd8G42_16syslog_generator8shutdown5testss_42v10_4_0_drain_wait_propagates_sender_error0B7_
FN:212,_RNCNvNtNtCs3I23rWd8G42_16syslog_generator8shutdown5testss_45v10_4_0_drain_wait_increments_timeout_counter0B7_
FN:305,_RNCNvNtNtCs3I23rWd8G42_16syslog_generator8shutdown5testss_55graceful_drain_wait_returns_task_join_on_aborted_handle0B7_
FN:74,_RNvNtCs3I23rWd8G42_16syslog_generator8shutdown13handle_signal
FN:22,_RNvNtCs3I23rWd8G42_16syslog_generator8shutdown17shutdown_listener
FN:112,_RNvNtCs3I23rWd8G42_16syslog_generator8shutdown19graceful_drain_wait
FN:95,_RNvNtCs3I23rWd8G42_16syslog_generator8shutdown20run_sigint_only_loop
FN:119,_RNCNCNvNtCs3I23rWd8G42_16syslog_generator8shutdown19graceful_drain_wait00B7_
FN:22,_RNCNvNtCs3I23rWd8G42_16syslog_generator8shutdown17shutdown_listener0B5_
FN:116,_RNCNvNtCs3I23rWd8G42_16syslog_generator8shutdown19graceful_drain_wait0B5_
FN:95,_RNCNvNtCs3I23rWd8G42_16syslog_generator8shutdown20run_sigint_only_loop0B5_
FNDA:25,_RNCNCNvNtCsdYvAweMv4CD_16syslog_generator8shutdown19graceful_drain_wait00B7_
FNDA:24,_RNCNvNtCsdYvAweMv4CD_16syslog_generator8shutdown17shutdown_listener0B5_
FNDA:25,_RNCNvNtCsdYvAweMv4CD_16syslog_generator8shutdown19graceful_drain_wait0B5_
FNDA:0,_RNCNvNtCsdYvAweMv4CD_16syslog_generator8shutdown20run_sigint_only_loop0B5_
FNDA:0,_RNvNtCsdYvAweMv4CD_16syslog_generator8shutdown13handle_signal
FNDA:24,_RNvNtCsdYvAweMv4CD_16syslog_generator8shutdown17shutdown_listener
FNDA:25,_RNvNtCsdYvAweMv4CD_16syslog_generator8shutdown19graceful_drain_wait
FNDA:0,_RNvNtCsdYvAweMv4CD_16syslog_generator8shutdown20run_sigint_only_loop
FNDA:1,_RNvNtNtCs3I23rWd8G42_16syslog_generator8shutdown5testss_26v10_4_0_drain_wait_timeout
FNDA:1,_RNvNtNtCs3I23rWd8G42_16syslog_generator8shutdown5testss_34v10_4_0_drain_wait_fast_handles_ok
FNDA:1,_RNvNtNtCs3I23rWd8G42_16syslog_generator8shutdown5testss_35v10_4_0_drain_wait_empty_handles_ok
FNDA:1,_RNvNtNtCs3I23rWd8G42_16syslog_generator8shutdown5testss_38pr_2_handle_signal_first_press_cancels
FNDA:1,_RNvNtNtCs3I23rWd8G42_16syslog_generator8shutdown5testss_39v10_4_0_shutdown_listener_cancels_token
FNDA:1,_RNvNtNtCs3I23rWd8G42_16syslog_generator8shutdown5testss_42v10_4_0_drain_wait_propagates_sender_error
FNDA:1,_RNvNtNtCs3I23rWd8G42_16syslog_generator8shutdown5testss_45v10_4_0_drain_wait_increments_timeout_counter
FNDA:1,_RNvNtNtCs3I23rWd8G42_16syslog_generator8shutdown5testss_53pr_2_handle_signal_counter_shared_across_signal_kinds
FNDA:1,_RNvNtNtCs3I23rWd8G42_16syslog_generator8shutdown5testss_55graceful_drain_wait_returns_task_join_on_aborted_handle
FNDA:3,_RNCNCNCNvNtNtCs3I23rWd8G42_16syslog_generator8shutdown5testss_34v10_4_0_drain_wait_fast_handles_ok000Bb_
FNDA:1,_RNCNCNvNtNtCs3I23rWd8G42_16syslog_generator8shutdown5testss_26v10_4_0_drain_wait_timeout00B9_
FNDA:3,_RNCNCNvNtNtCs3I23rWd8G42_16syslog_generator8shutdown5testss_34v10_4_0_drain_wait_fast_handles_ok00B9_
FNDA:1,_RNCNCNvNtNtCs3I23rWd8G42_16syslog_generator8shutdown5testss_42v10_4_0_drain_wait_propagates_sender_error00B9_
FNDA:1,_RNCNCNvNtNtCs3I23rWd8G42_16syslog_generator8shutdown5testss_45v10_4_0_drain_wait_increments_timeout_counter00B9_
FNDA:0,_RNCNCNvNtNtCs3I23rWd8G42_16syslog_generator8shutdown5testss_55graceful_drain_wait_returns_task_join_on_aborted_handle00B9_
FNDA:1,_RNCNvNtNtCs3I23rWd8G42_16syslog_generator8shutdown5testss_26v10_4_0_drain_wait_timeout0B7_
FNDA:1,_RNCNvNtNtCs3I23rWd8G42_16syslog_generator8shutdown5testss_34v10_4_0_drain_wait_fast_handles_ok0B7_
FNDA:1,_RNCNvNtNtCs3I23rWd8G42_16syslog_generator8shutdown5testss_35v10_4_0_drain_wait_empty_handles_ok0B7_
FNDA:1,_RNCNvNtNtCs3I23rWd8G42_16syslog_generator8shutdown5testss_39v10_4_0_shutdown_listener_cancels_token0B7_
FNDA:1,_RNCNvNtNtCs3I23rWd8G42_16syslog_generator8shutdown5testss_42v10_4_0_drain_wait_propagates_sender_error0B7_
FNDA:1,_RNCNvNtNtCs3I23rWd8G42_16syslog_generator8shutdown5testss_45v10_4_0_drain_wait_increments_timeout_counter0B7_
FNDA:1,_RNCNvNtNtCs3I23rWd8G42_16syslog_generator8shutdown5testss_55graceful_drain_wait_returns_task_join_on_aborted_handle0B7_
FNDA:2,_RNvNtCs3I23rWd8G42_16syslog_generator8shutdown13handle_signal
FNDA:0,_RNvNtCs3I23rWd8G42_16syslog_generator8shutdown17shutdown_listener
FNDA:7,_RNvNtCs3I23rWd8G42_16syslog_generator8shutdown19graceful_drain_wait
FNDA:0,_RNvNtCs3I23rWd8G42_16syslog_generator8shutdown20run_sigint_only_loop
FNDA:7,_RNCNCNvNtCs3I23rWd8G42_16syslog_generator8shutdown19graceful_drain_wait00B7_
FNDA:0,_RNCNvNtCs3I23rWd8G42_16syslog_generator8shutdown17shutdown_listener0B5_
FNDA:7,_RNCNvNtCs3I23rWd8G42_16syslog_generator8shutdown19graceful_drain_wait0B5_
FNDA:0,_RNCNvNtCs3I23rWd8G42_16syslog_generator8shutdown20run_sigint_only_loop0B5_
FNF:30
FNH:27
DA:22,24
DA:31,24
DA:34,24
DA:36,24
DA:37,0
DA:38,0
DA:43,0
DA:49,24
DA:50,24
DA:51,0
DA:52,0
DA:53,24
DA:54,0
DA:55,0
DA:64,0
DA:74,2
DA:75,2
DA:76,2
DA:77,1
DA:78,1
DA:80,2
DA:81,2
DA:82,2
DA:83,2
DA:84,2
DA:85,2
DA:86,2
DA:87,2
DA:88,0
DA:89,0
DA:91,2
DA:95,0
DA:97,0
DA:98,0
DA:112,32
DA:113,32
DA:114,32
DA:115,32
DA:116,32
DA:117,32
DA:118,32
DA:119,32
DA:120,46
DA:124,46
DA:126,28
DA:127,30
DA:128,32
DA:129,30
DA:130,30
DA:131,30
DA:132,30
DA:133,30
DA:136,2
DA:137,2
DA:138,2
DA:139,2
DA:140,2
DA:143,32
DA:152,1
DA:153,1
DA:154,1
DA:155,1
DA:156,1
DA:160,1
DA:161,1
DA:162,1
DA:163,3
DA:164,3
DA:165,3
DA:166,3
DA:167,3
DA:168,3
DA:169,1
DA:170,1
DA:171,1
DA:172,1
DA:176,1
DA:177,1
DA:179,1
DA:180,1
DA:181,1
DA:182,0
DA:183,0
DA:184,1
DA:185,1
DA:186,1
DA:187,1
DA:188,1
DA:189,1
DA:190,1
DA:191,1
DA:195,1
DA:196,1
DA:197,1
DA:198,1
DA:199,1
DA:200,1
DA:201,1
DA:202,1
DA:203,1
DA:204,1
DA:205,1
DA:206,1
DA:207,1
DA:208,1
DA:212,1
DA:213,1
DA:214,1
DA:221,1
DA:222,1
DA:223,1
DA:224,0
DA:225,0
DA:226,1
DA:227,1
DA:235,1
DA:236,1
DA:240,1
DA:246,1
DA:247,1
DA:248,1
DA:251,1
DA:252,1
DA:254,1
DA:255,1
DA:256,1
DA:257,1
DA:258,1
DA:259,1
DA:260,1
DA:264,1
DA:265,1
DA:266,1
DA:267,1
DA:268,1
DA:270,1
DA:272,1
DA:273,1
DA:274,1
DA:282,1
DA:283,1
DA:284,1
DA:285,1
DA:287,1
DA:289,1
DA:290,1
DA:296,1
DA:297,1
DA:298,1
DA:305,1
DA:307,1
DA:309,1
DA:310,0
DA:311,0
DA:312,0
DA:313,1
DA:314,1
DA:315,1
DA:316,1
DA:317,1
DA:318,1
DA:319,1
BRF:0
BRH:0
LF:195
LH:170
end_of_record
SF:/private/tmp/pr17a-worktree/src/template.rs
FN:91,_RNvMNtCsdYvAweMv4CD_16syslog_generator8templateNtB2_16CompiledTemplate6render
FN:99,_RNCNCNvMNtCsdYvAweMv4CD_16syslog_generator8templateNtB6_16CompiledTemplate6render00B8_
FN:96,_RNCNvMNtCsdYvAweMv4CD_16syslog_generator8templateNtB4_16CompiledTemplate6render0B6_
FN:38,_RNvMNtCsdYvAweMv4CD_16syslog_generator8templateNtB2_16CompiledTemplate7compile
FN:126,_RNvNtCsdYvAweMv4CD_16syslog_generator8template15render_template
FN:91,_RNvMNtCs3I23rWd8G42_16syslog_generator8templateNtB2_16CompiledTemplate6render
FN:173,_RNvNtNtCs3I23rWd8G42_16syslog_generator8template5testss_14empty_template
FN:147,_RNvNtNtCs3I23rWd8G42_16syslog_generator8template5testss_20renders_literal_only
FN:135,_RNvNtNtCs3I23rWd8G42_16syslog_generator8template5testss_24compiles_simple_template
FN:155,_RNvNtNtCs3I23rWd8G42_16syslog_generator8template5testss_26renders_substituted_values
FN:164,_RNvNtNtCs3I23rWd8G42_16syslog_generator8template5testss_29unknown_placeholder_preserved
FN:202,_RNvNtNtCs3I23rWd8G42_16syslog_generator8template5testss_36performance_compile_once_render_many
FN:181,_RNvNtNtCs3I23rWd8G42_16syslog_generator8template5testss_37malformed_placeholder_left_as_literal
FN:190,_RNvNtNtCs3I23rWd8G42_16syslog_generator8template5testss_48back_compat_render_template_matches_old_behavior
FN:38,_RNvMNtCs3I23rWd8G42_16syslog_generator8templateNtB2_16CompiledTemplate7compile
FN:126,_RNvNtCs3I23rWd8G42_16syslog_generator8template15render_template
FN:99,_RNCNCNvMNtCs3I23rWd8G42_16syslog_generator8templateNtB6_16CompiledTemplate6render00B8_
FN:96,_RNCNvMNtCs3I23rWd8G42_16syslog_generator8templateNtB4_16CompiledTemplate6render0B6_
FNDA:24509,_RNvMNtCsdYvAweMv4CD_16syslog_generator8templateNtB2_16CompiledTemplate6render
FNDA:7055,_RNCNCNvMNtCsdYvAweMv4CD_16syslog_generator8templateNtB6_16CompiledTemplate6render00B8_
FNDA:28971,_RNCNvMNtCsdYvAweMv4CD_16syslog_generator8templateNtB4_16CompiledTemplate6render0B6_
FNDA:25151,_RNvMNtCsdYvAweMv4CD_16syslog_generator8templateNtB2_16CompiledTemplate7compile
FNDA:21281,_RNvNtCsdYvAweMv4CD_16syslog_generator8template15render_template
FNDA:1070,_RNvMNtCs3I23rWd8G42_16syslog_generator8templateNtB2_16CompiledTemplate6render
FNDA:1,_RNvNtNtCs3I23rWd8G42_16syslog_generator8template5testss_14empty_template
FNDA:1,_RNvNtNtCs3I23rWd8G42_16syslog_generator8template5testss_20renders_literal_only
FNDA:1,_RNvNtNtCs3I23rWd8G42_16syslog_generator8template5testss_24compiles_simple_template
FNDA:1,_RNvNtNtCs3I23rWd8G42_16syslog_generator8template5testss_26renders_substituted_values
FNDA:1,_RNvNtNtCs3I23rWd8G42_16syslog_generator8template5testss_29unknown_placeholder_preserved
FNDA:1,_RNvNtNtCs3I23rWd8G42_16syslog_generator8template5testss_36performance_compile_once_render_many
FNDA:1,_RNvNtNtCs3I23rWd8G42_16syslog_generator8template5testss_37malformed_placeholder_left_as_literal
FNDA:1,_RNvNtNtCs3I23rWd8G42_16syslog_generator8template5testss_48back_compat_render_template_matches_old_behavior
FNDA:85,_RNvMNtCs3I23rWd8G42_16syslog_generator8templateNtB2_16CompiledTemplate7compile
FNDA:58,_RNvNtCs3I23rWd8G42_16syslog_generator8template15render_template
FNDA:4020,_RNCNCNvMNtCs3I23rWd8G42_16syslog_generator8templateNtB6_16CompiledTemplate6render00B8_
FNDA:7093,_RNCNvMNtCs3I23rWd8G42_16syslog_generator8templateNtB4_16CompiledTemplate6render0B6_
FNF:13
FNH:13
DA:38,25236
DA:39,25236
DA:40,25236
DA:41,25236
DA:42,138242
DA:43,113006
DA:45,18317
DA:46,8064
DA:47,10253
DA:49,18317
DA:51,18317
DA:52,18317
DA:53,143377
DA:54,143376
DA:55,18316
DA:56,18316
DA:57,18316
DA:58,125060
DA:59,125060
DA:61,18317
DA:62,18316
DA:63,18316
DA:64,1
DA:65,1
DA:66,1
DA:67,1
DA:68,1
DA:69,1
DA:70,1
DA:71,1
DA:72,1
DA:73,1
DA:74,94689
DA:75,94689
DA:76,94689
DA:78,25236
DA:79,14588
DA:80,14588
DA:81,25236
DA:82,25236
DA:91,25579
DA:93,25579
DA:94,25579
DA:95,25579
DA:96,36064
DA:97,21415
DA:98,14649
DA:99,14649
DA:101,36064
DA:102,25579
DA:104,36064
DA:105,36064
DA:106,21415
DA:107,14649
DA:108,11075
DA:109,3574
DA:110,3574
DA:111,3574
DA:112,3574
DA:113,3574
DA:114,3574
DA:115,3574
DA:119,25579
DA:120,25579
DA:126,21339
DA:127,21339
DA:128,21339
DA:135,1
DA:136,1
DA:137,1
DA:139,1
DA:140,1
DA:141,1
DA:144,1
DA:147,1
DA:148,1
DA:149,1
DA:150,1
DA:151,1
DA:152,1
DA:155,1
DA:156,1
DA:157,1
DA:158,1
DA:159,1
DA:160,1
DA:161,1
DA:164,1
DA:166,1
DA:167,1
DA:168,1
DA:169,1
DA:170,1
DA:173,1
DA:174,1
DA:175,1
DA:176,1
DA:177,1
DA:178,1
DA:181,1
DA:184,1
DA:185,1
DA:186,1
DA:187,1
DA:190,1
DA:191,1
DA:192,1
DA:193,1
DA:196,1
DA:197,1
DA:198,1
DA:199,1
DA:202,1
DA:204,1
DA:205,1
DA:206,1
DA:207,1
DA:208,1
DA:209,1
DA:210,1
DA:211,1000
DA:213,1
BRF:0
BRH:0
LF:124
LH:124
end_of_record
SF:/private/tmp/pr17a-worktree/src/transport/file.rs
FN:109,_RNCNCNvNtNtCsdYvAweMv4CD_16syslog_generator9transport4file11rotate_file00B9_
FN:136,_RNCNCNvNtNtCsdYvAweMv4CD_16syslog_generator9transport4file11rotate_file0s0_0B9_
FN:114,_RNCNCNvNtNtCsdYvAweMv4CD_16syslog_generator9transport4file11rotate_file0s_0B9_
FN:164,_RNCNCNvNtNtCsdYvAweMv4CD_16syslog_generator9transport4file25cleanup_old_rotated_files00B9_
FN:177,_RNCNCNvNtNtCsdYvAweMv4CD_16syslog_generator9transport4file25cleanup_old_rotated_files0s0_0B9_
FN:171,_RNCNCNvNtNtCsdYvAweMv4CD_16syslog_generator9transport4file25cleanup_old_rotated_files0s_0B9_
FN:62,_RNCNvMNtNtCsdYvAweMv4CD_16syslog_generator9transport4fileNtB4_14RotationConfig20size_threshold_bytes0B8_
FN:300,_RNCNvNtNtCsdYvAweMv4CD_16syslog_generator9transport4file11open_writer0B7_
FN:107,_RNCNvNtNtCsdYvAweMv4CD_16syslog_generator9transport4file11rotate_file0B7_
FN:99,_RNCNvNtNtCsdYvAweMv4CD_16syslog_generator9transport4file18rotation_timestamp0B7_
FN:220,_RNCNvNtNtCsdYvAweMv4CD_16syslog_generator9transport4file18target_sender_file0B7_
FN:163,_RNCNvNtNtCsdYvAweMv4CD_16syslog_generator9transport4file25cleanup_old_rotated_files0B7_
FN:244,_RNCNvNtNtCsdYvAweMv4CD_16syslog_generator9transport4file32target_sender_file_with_rotation0B7_
FN:315,_RNCNvNtNtCsdYvAweMv4CD_16syslog_generator9transport4file9do_rotate0B7_
FN:51,_RNvMNtNtCsdYvAweMv4CD_16syslog_generator9transport4fileNtB2_14RotationConfig10is_enabled
FN:56,_RNvMNtNtCsdYvAweMv4CD_16syslog_generator9transport4fileNtB2_14RotationConfig19effective_max_files
FN:61,_RNvMNtNtCsdYvAweMv4CD_16syslog_generator9transport4fileNtB2_14RotationConfig20size_threshold_bytes
FN:66,_RNvMNtNtCsdYvAweMv4CD_16syslog_generator9transport4fileNtB2_14RotationConfig8validate
FN:300,_RNvNtNtCsdYvAweMv4CD_16syslog_generator9transport4file11open_writer
FN:107,_RNvNtNtCsdYvAweMv4CD_16syslog_generator9transport4file11rotate_file
FN:96,_RNvNtNtCsdYvAweMv4CD_16syslog_generator9transport4file18rotation_timestamp
FN:214,_RNvNtNtCsdYvAweMv4CD_16syslog_generator9transport4file18target_sender_file
FN:163,_RNvNtNtCsdYvAweMv4CD_16syslog_generator9transport4file25cleanup_old_rotated_files
FN:237,_RNvNtNtCsdYvAweMv4CD_16syslog_generator9transport4file32target_sender_file_with_rotation
FN:310,_RNvNtNtCsdYvAweMv4CD_16syslog_generator9transport4file9do_rotate
FN:494,_RNCNCNvNtNtNtCs3I23rWd8G42_16syslog_generator9transport4file5testss_44cleanup_old_rotated_files_respects_max_files00Bb_
FN:346,_RNCNvNtNtNtCs3I23rWd8G42_16syslog_generator9transport4file5tests12make_metrics0B9_
FN:350,_RNCNvNtNtNtCs3I23rWd8G42_16syslog_generator9transport4file5tests9read_file0B9_
FN:340,_RNCNvNtNtNtCs3I23rWd8G42_16syslog_generator9transport4file5tests9temp_path0B9_
FN:362,_RNCNvNtNtNtCs3I23rWd8G42_16syslog_generator9transport4file5testss_27no_rotation_works_as_before0B9_
FN:489,_RNCNvNtNtNtCs3I23rWd8G42_16syslog_generator9transport4file5testss_44cleanup_old_rotated_files_respects_max_files0B9_
FN:436,_RNCNvNtNtNtCs3I23rWd8G42_16syslog_generator9transport4file5testss_44rotation_by_interval_triggers_after_duration0B9_
FN:389,_RNCNvNtNtNtCs3I23rWd8G42_16syslog_generator9transport4file5testss_49rotation_validate_catches_bad_params_when_enabled0B9_
FN:346,_RNvNtNtNtCs3I23rWd8G42_16syslog_generator9transport4file5tests12make_metrics
FN:350,_RNvNtNtNtCs3I23rWd8G42_16syslog_generator9transport4file5tests9read_file
FN:336,_RNvNtNtNtCs3I23rWd8G42_16syslog_generator9transport4file5tests9temp_path
FN:531,_RNvNtNtNtCs3I23rWd8G42_16syslog_generator9transport4file5testss_23rotation_config_helpers
FN:362,_RNvNtNtNtCs3I23rWd8G42_16syslog_generator9transport4file5testss_27no_rotation_works_as_before
FN:489,_RNvNtNtNtCs3I23rWd8G42_16syslog_generator9transport4file5testss_44cleanup_old_rotated_files_respects_max_files
FN:436,_RNvNtNtNtCs3I23rWd8G42_16syslog_generator9transport4file5testss_44rotation_by_interval_triggers_after_duration
FN:389,_RNvNtNtNtCs3I23rWd8G42_16syslog_generator9transport4file5testss_49rotation_validate_catches_bad_params_when_enabled
FN:51,_RNvMNtNtCs3I23rWd8G42_16syslog_generator9transport4fileNtB2_14RotationConfig10is_enabled
FN:56,_RNvMNtNtCs3I23rWd8G42_16syslog_generator9transport4fileNtB2_14RotationConfig19effective_max_files
FN:61,_RNvMNtNtCs3I23rWd8G42_16syslog_generator9transport4fileNtB2_14RotationConfig20size_threshold_bytes
FN:66,_RNvMNtNtCs3I23rWd8G42_16syslog_generator9transport4fileNtB2_14RotationConfig8validate
FN:300,_RNvNtNtCs3I23rWd8G42_16syslog_generator9transport4file11open_writer
FN:107,_RNvNtNtCs3I23rWd8G42_16syslog_generator9transport4file11rotate_file
FN:96,_RNvNtNtCs3I23rWd8G42_16syslog_generator9transport4file18rotation_timestamp
FN:214,_RNvNtNtCs3I23rWd8G42_16syslog_generator9transport4file18target_sender_file
FN:163,_RNvNtNtCs3I23rWd8G42_16syslog_generator9transport4file25cleanup_old_rotated_files
FN:237,_RNvNtNtCs3I23rWd8G42_16syslog_generator9transport4file32target_sender_file_with_rotation
FN:310,_RNvNtNtCs3I23rWd8G42_16syslog_generator9transport4file9do_rotate
FN:109,_RNCNCNvNtNtCs3I23rWd8G42_16syslog_generator9transport4file11rotate_file00B9_
FN:136,_RNCNCNvNtNtCs3I23rWd8G42_16syslog_generator9transport4file11rotate_file0s0_0B9_
FN:114,_RNCNCNvNtNtCs3I23rWd8G42_16syslog_generator9transport4file11rotate_file0s_0B9_
FN:164,_RNCNCNvNtNtCs3I23rWd8G42_16syslog_generator9transport4file25cleanup_old_rotated_files00B9_
FN:177,_RNCNCNvNtNtCs3I23rWd8G42_16syslog_generator9transport4file25cleanup_old_rotated_files0s0_0B9_
FN:171,_RNCNCNvNtNtCs3I23rWd8G42_16syslog_generator9transport4file25cleanup_old_rotated_files0s_0B9_
FN:62,_RNCNvMNtNtCs3I23rWd8G42_16syslog_generator9transport4fileNtB4_14RotationConfig20size_threshold_bytes0B8_
FN:300,_RNCNvNtNtCs3I23rWd8G42_16syslog_generator9transport4file11open_writer0B7_
FN:107,_RNCNvNtNtCs3I23rWd8G42_16syslog_generator9transport4file11rotate_file0B7_
FN:99,_RNCNvNtNtCs3I23rWd8G42_16syslog_generator9transport4file18rotation_timestamp0B7_
FN:220,_RNCNvNtNtCs3I23rWd8G42_16syslog_generator9transport4file18target_sender_file0B7_
FN:163,_RNCNvNtNtCs3I23rWd8G42_16syslog_generator9transport4file25cleanup_old_rotated_files0B7_
FN:244,_RNCNvNtNtCs3I23rWd8G42_16syslog_generator9transport4file32target_sender_file_with_rotation0B7_
FN:315,_RNCNvNtNtCs3I23rWd8G42_16syslog_generator9transport4file9do_rotate0B7_
FNDA:2,_RNCNCNvNtNtCsdYvAweMv4CD_16syslog_generator9transport4file11rotate_file00B9_
FNDA:0,_RNCNCNvNtNtCsdYvAweMv4CD_16syslog_generator9transport4file11rotate_file0s0_0B9_
FNDA:2,_RNCNCNvNtNtCsdYvAweMv4CD_16syslog_generator9transport4file11rotate_file0s_0B9_
FNDA:2,_RNCNCNvNtNtCsdYvAweMv4CD_16syslog_generator9transport4file25cleanup_old_rotated_files00B9_
FNDA:2283,_RNCNCNvNtNtCsdYvAweMv4CD_16syslog_generator9transport4file25cleanup_old_rotated_files0s0_0B9_
FNDA:2,_RNCNCNvNtNtCsdYvAweMv4CD_16syslog_generator9transport4file25cleanup_old_rotated_files0s_0B9_
FNDA:0,_RNCNvMNtNtCsdYvAweMv4CD_16syslog_generator9transport4fileNtB4_14RotationConfig20size_threshold_bytes0B8_
FNDA:24,_RNCNvNtNtCsdYvAweMv4CD_16syslog_generator9transport4file11open_writer0B7_
FNDA:2,_RNCNvNtNtCsdYvAweMv4CD_16syslog_generator9transport4file11rotate_file0B7_
FNDA:2,_RNCNvNtNtCsdYvAweMv4CD_16syslog_generator9transport4file18rotation_timestamp0B7_
FNDA:21,_RNCNvNtNtCsdYvAweMv4CD_16syslog_generator9transport4file18target_sender_file0B7_
FNDA:2,_RNCNvNtNtCsdYvAweMv4CD_16syslog_generator9transport4file25cleanup_old_rotated_files0B7_
FNDA:22,_RNCNvNtNtCsdYvAweMv4CD_16syslog_generator9transport4file32target_sender_file_with_rotation0B7_
FNDA:2,_RNCNvNtNtCsdYvAweMv4CD_16syslog_generator9transport4file9do_rotate0B7_
FNDA:21,_RNvMNtNtCsdYvAweMv4CD_16syslog_generator9transport4fileNtB2_14RotationConfig10is_enabled
FNDA:2,_RNvMNtNtCsdYvAweMv4CD_16syslog_generator9transport4fileNtB2_14RotationConfig19effective_max_files
FNDA:2684,_RNvMNtNtCsdYvAweMv4CD_16syslog_generator9transport4fileNtB2_14RotationConfig20size_threshold_bytes
FNDA:0,_RNvMNtNtCsdYvAweMv4CD_16syslog_generator9transport4fileNtB2_14RotationConfig8validate
FNDA:24,_RNvNtNtCsdYvAweMv4CD_16syslog_generator9transport4file11open_writer
FNDA:2,_RNvNtNtCsdYvAweMv4CD_16syslog_generator9transport4file11rotate_file
FNDA:2,_RNvNtNtCsdYvAweMv4CD_16syslog_generator9transport4file18rotation_timestamp
FNDA:21,_RNvNtNtCsdYvAweMv4CD_16syslog_generator9transport4file18target_sender_file
FNDA:2,_RNvNtNtCsdYvAweMv4CD_16syslog_generator9transport4file25cleanup_old_rotated_files
FNDA:22,_RNvNtNtCsdYvAweMv4CD_16syslog_generator9transport4file32target_sender_file_with_rotation
FNDA:2,_RNvNtNtCsdYvAweMv4CD_16syslog_generator9transport4file9do_rotate
FNDA:1,_RNCNCNvNtNtNtCs3I23rWd8G42_16syslog_generator9transport4file5testss_44cleanup_old_rotated_files_respects_max_files00Bb_
FNDA:2,_RNCNvNtNtNtCs3I23rWd8G42_16syslog_generator9transport4file5tests12make_metrics0B9_
FNDA:1,_RNCNvNtNtNtCs3I23rWd8G42_16syslog_generator9transport4file5tests9read_file0B9_
FNDA:2,_RNCNvNtNtNtCs3I23rWd8G42_16syslog_generator9transport4file5tests9temp_path0B9_
FNDA:1,_RNCNvNtNtNtCs3I23rWd8G42_16syslog_generator9transport4file5testss_27no_rotation_works_as_before0B9_
FNDA:1,_RNCNvNtNtNtCs3I23rWd8G42_16syslog_generator9transport4file5testss_44cleanup_old_rotated_files_respects_max_files0B9_
FNDA:1,_RNCNvNtNtNtCs3I23rWd8G42_16syslog_generator9transport4file5testss_44rotation_by_interval_triggers_after_duration0B9_
FNDA:1,_RNCNvNtNtNtCs3I23rWd8G42_16syslog_generator9transport4file5testss_49rotation_validate_catches_bad_params_when_enabled0B9_
FNDA:2,_RNvNtNtNtCs3I23rWd8G42_16syslog_generator9transport4file5tests12make_metrics
FNDA:1,_RNvNtNtNtCs3I23rWd8G42_16syslog_generator9transport4file5tests9read_file
FNDA:2,_RNvNtNtNtCs3I23rWd8G42_16syslog_generator9transport4file5tests9temp_path
FNDA:1,_RNvNtNtNtCs3I23rWd8G42_16syslog_generator9transport4file5testss_23rotation_config_helpers
FNDA:1,_RNvNtNtNtCs3I23rWd8G42_16syslog_generator9transport4file5testss_27no_rotation_works_as_before
FNDA:1,_RNvNtNtNtCs3I23rWd8G42_16syslog_generator9transport4file5testss_44cleanup_old_rotated_files_respects_max_files
FNDA:1,_RNvNtNtNtCs3I23rWd8G42_16syslog_generator9transport4file5testss_44rotation_by_interval_triggers_after_duration
FNDA:1,_RNvNtNtNtCs3I23rWd8G42_16syslog_generator9transport4file5testss_49rotation_validate_catches_bad_params_when_enabled
FNDA:9,_RNvMNtNtCs3I23rWd8G42_16syslog_generator9transport4fileNtB2_14RotationConfig10is_enabled
FNDA:4,_RNvMNtNtCs3I23rWd8G42_16syslog_generator9transport4fileNtB2_14RotationConfig19effective_max_files
FNDA:14,_RNvMNtNtCs3I23rWd8G42_16syslog_generator9transport4fileNtB2_14RotationConfig20size_threshold_bytes
FNDA:6,_RNvMNtNtCs3I23rWd8G42_16syslog_generator9transport4fileNtB2_14RotationConfig8validate
FNDA:6,_RNvNtNtCs3I23rWd8G42_16syslog_generator9transport4file11open_writer
FNDA:2,_RNvNtNtCs3I23rWd8G42_16syslog_generator9transport4file11rotate_file
FNDA:2,_RNvNtNtCs3I23rWd8G42_16syslog_generator9transport4file18rotation_timestamp
FNDA:3,_RNvNtNtCs3I23rWd8G42_16syslog_generator9transport4file18target_sender_file
FNDA:3,_RNvNtNtCs3I23rWd8G42_16syslog_generator9transport4file25cleanup_old_rotated_files
FNDA:4,_RNvNtNtCs3I23rWd8G42_16syslog_generator9transport4file32target_sender_file_with_rotation
FNDA:2,_RNvNtNtCs3I23rWd8G42_16syslog_generator9transport4file9do_rotate
FNDA:2,_RNCNCNvNtNtCs3I23rWd8G42_16syslog_generator9transport4file11rotate_file00B9_
FNDA:0,_RNCNCNvNtNtCs3I23rWd8G42_16syslog_generator9transport4file11rotate_file0s0_0B9_
FNDA:2,_RNCNCNvNtNtCs3I23rWd8G42_16syslog_generator9transport4file11rotate_file0s_0B9_
FNDA:3,_RNCNCNvNtNtCs3I23rWd8G42_16syslog_generator9transport4file25cleanup_old_rotated_files00B9_
FNDA:3430,_RNCNCNvNtNtCs3I23rWd8G42_16syslog_generator9transport4file25cleanup_old_rotated_files0s0_0B9_
FNDA:3,_RNCNCNvNtNtCs3I23rWd8G42_16syslog_generator9transport4file25cleanup_old_rotated_files0s_0B9_
FNDA:1,_RNCNvMNtNtCs3I23rWd8G42_16syslog_generator9transport4fileNtB4_14RotationConfig20size_threshold_bytes0B8_
FNDA:6,_RNCNvNtNtCs3I23rWd8G42_16syslog_generator9transport4file11open_writer0B7_
FNDA:2,_RNCNvNtNtCs3I23rWd8G42_16syslog_generator9transport4file11rotate_file0B7_
FNDA:2,_RNCNvNtNtCs3I23rWd8G42_16syslog_generator9transport4file18rotation_timestamp0B7_
FNDA:3,_RNCNvNtNtCs3I23rWd8G42_16syslog_generator9transport4file18target_sender_file0B7_
FNDA:3,_RNCNvNtNtCs3I23rWd8G42_16syslog_generator9transport4file25cleanup_old_rotated_files0B7_
FNDA:4,_RNCNvNtNtCs3I23rWd8G42_16syslog_generator9transport4file32target_sender_file_with_rotation0B7_
FNDA:2,_RNCNvNtNtCs3I23rWd8G42_16syslog_generator9transport4file9do_rotate0B7_
FNF:41
FNH:40
DA:51,30
DA:52,30
DA:53,30
DA:56,6
DA:57,6
DA:58,6
DA:61,2698
DA:62,2698
DA:63,2698
DA:66,6
DA:67,6
DA:68,2
DA:69,4
DA:70,4
DA:71,3
DA:72,1
DA:73,1
DA:74,1
DA:75,1
DA:76,2
DA:77,1
DA:78,3
DA:79,2
DA:80,1
DA:81,1
DA:82,1
DA:83,1
DA:84,1
DA:85,1
DA:86,2
DA:87,2
DA:88,1
DA:89,1
DA:90,0
DA:91,1
DA:92,6
DA:96,4
DA:97,4
DA:98,4
DA:99,4
DA:100,4
DA:101,4
DA:107,4
DA:108,4
DA:109,4
DA:112,4
DA:113,4
DA:114,4
DA:115,4
DA:120,4
DA:121,0
DA:123,4
DA:125,4
DA:126,4
DA:127,0
DA:128,0
DA:129,0
DA:131,0
DA:133,0
DA:134,0
DA:135,0
DA:136,0
DA:137,0
DA:138,0
DA:139,0
DA:141,0
DA:143,0
DA:144,0
DA:146,4
DA:151,4
DA:152,4
DA:153,4
DA:163,5
DA:164,5
DA:169,5
DA:170,5
DA:171,5
DA:172,5
DA:174,5
DA:175,5
DA:176,5718
DA:177,5713
DA:178,5713
DA:179,0
DA:182,5713
DA:183,5701
DA:184,12
DA:185,12
DA:187,12
DA:188,11
DA:189,1
DA:193,11
DA:194,11
DA:195,11
DA:196,11
DA:199,5
DA:202,5
DA:203,5
DA:204,5
DA:205,5
DA:206,4
DA:207,4
DA:208,4
DA:210,5
DA:211,5
DA:214,24
DA:215,24
DA:216,24
DA:217,24
DA:218,24
DA:219,24
DA:220,24
DA:221,24
DA:222,24
DA:223,24
DA:224,24
DA:225,24
DA:226,24
DA:227,24
DA:228,24
DA:229,24
DA:230,24
DA:231,24
DA:237,26
DA:238,26
DA:239,26
DA:240,26
DA:241,26
DA:242,26
DA:243,26
DA:244,26
DA:247,26
DA:248,26
DA:249,0
DA:250,26
DA:251,0
DA:253,26
DA:254,26
DA:255,26
DA:257,2722
DA:260,2696
DA:261,6
DA:263,4
DA:264,4
DA:265,4
DA:266,4
DA:267,2692
DA:269,2696
DA:270,2696
DA:271,2696
DA:272,2696
DA:273,2696
DA:274,2696
DA:275,2696
DA:276,2696
DA:277,2696
DA:278,2696
DA:279,2696
DA:280,2696
DA:281,2696
DA:282,2696
DA:285,2696
DA:286,0
DA:287,0
DA:288,0
DA:289,0
DA:290,0
DA:291,0
DA:292,2696
DA:295,26
DA:296,26
DA:297,26
DA:300,30
DA:301,30
DA:302,30
DA:303,30
DA:304,30
DA:305,30
DA:306,30
DA:307,30
DA:310,4
DA:311,4
DA:312,4
DA:313,4
DA:314,4
DA:315,4
DA:316,4
DA:317,4
DA:318,4
DA:319,4
DA:320,4
DA:321,4
DA:322,4
DA:323,4
DA:324,4
DA:336,2
DA:337,2
DA:338,2
DA:339,2
DA:340,2
DA:341,2
DA:342,2
DA:343,2
DA:344,2
DA:346,2
DA:347,2
DA:348,2
DA:350,1
DA:351,1
DA:352,1
DA:353,1
DA:354,1
DA:355,1
DA:356,1
DA:357,1
DA:358,1
DA:359,1
DA:362,1
DA:364,1
DA:365,1
DA:366,1
DA:367,1
DA:368,1
DA:369,1
DA:370,1
DA:371,1
DA:372,1
DA:373,1
DA:374,1
DA:375,1
DA:377,5
DA:378,5
DA:380,1
DA:381,1
DA:382,1
DA:383,1
DA:384,1
DA:385,1
DA:386,1
DA:389,1
DA:391,1
DA:392,1
DA:393,1
DA:394,1
DA:395,1
DA:396,1
DA:397,1
DA:399,1
DA:400,1
DA:401,1
DA:402,1
DA:403,1
DA:404,1
DA:405,1
DA:407,1
DA:408,1
DA:409,1
DA:410,1
DA:411,1
DA:412,1
DA:413,1
DA:416,1
DA:418,1
DA:419,1
DA:420,1
DA:421,1
DA:422,1
DA:423,1
DA:424,1
DA:426,1
DA:427,1
DA:428,1
DA:429,1
DA:430,1
DA:431,1
DA:432,1
DA:433,1
DA:436,1
DA:437,1
DA:438,1
DA:439,1
DA:440,1
DA:441,1
DA:445,1
DA:446,1
DA:447,1
DA:448,1
DA:449,1
DA:450,1
DA:451,1
DA:452,1
DA:453,1
DA:454,1
DA:455,1
DA:456,1
DA:458,3
DA:459,3
DA:460,3
DA:462,1
DA:463,1
DA:465,1
DA:466,1
DA:467,1
DA:468,1144
DA:469,1143
DA:470,1143
DA:471,3
DA:472,1140
DA:474,1
DA:475,1
DA:479,1
DA:480,1144
DA:481,1143
DA:482,1143
DA:483,3
DA:484,1140
DA:485,1
DA:486,1
DA:489,1
DA:491,1
DA:492,1
DA:493,1
DA:494,1
DA:495,1
DA:496,1
DA:497,1
DA:498,5
DA:499,5
DA:500,5
DA:501,5
DA:504,1
DA:505,1
DA:508,1
DA:510,1
DA:513,1
DA:514,1
DA:515,1144
DA:516,1143
DA:517,1143
DA:518,2
DA:519,1141
DA:521,1
DA:524,5
DA:525,5
DA:526,1
DA:527,1
DA:528,1
DA:531,1
DA:532,1
DA:533,1
DA:534,1
DA:535,1
DA:537,1
DA:538,1
DA:539,1
DA:540,1
DA:541,1
DA:542,1
DA:543,1
DA:544,1
DA:545,1
BRF:0
BRH:0
LF:399
LH:373
end_of_record
SF:/private/tmp/pr17a-worktree/src/transport/mod.rs
FN:242,_RNCNvXs_NtCsdYvAweMv4CD_16syslog_generator9transportNtB6_13TransportKindNtB6_9Transport3run0B8_
FN:121,_RNvMNtCsdYvAweMv4CD_16syslog_generator9transportNtB2_7Framing5parse
FN:145,_RNvNtCsdYvAweMv4CD_16syslog_generator9transport10frame_into
FN:40,_RNvNtCsdYvAweMv4CD_16syslog_generator9transport11record_send
FN:82,_RNvNtCsdYvAweMv4CD_16syslog_generator9transport12record_error
FN:131,_RNvNtCsdYvAweMv4CD_16syslog_generator9transport15drain_as_errors
FN:75,_RNvNtCsdYvAweMv4CD_16syslog_generator9transport16record_reconnect
FN:70,_RNvNtCsdYvAweMv4CD_16syslog_generator9transport19record_send_latency
FN:90,_RNvNtCsdYvAweMv4CD_16syslog_generator9transport8next_msg
FN:233,_RNvXs_NtCsdYvAweMv4CD_16syslog_generator9transportNtB4_13TransportKindNtB4_9Transport3run
FN:213,_RNvXs_NtCsdYvAweMv4CD_16syslog_generator9transportNtB4_13TransportKindNtB4_9Transport4name
FN:96,_RNCNCNvNtCsdYvAweMv4CD_16syslog_generator9transport8next_msg00B7_
FN:101,_RNCNCNvNtCsdYvAweMv4CD_16syslog_generator9transport8next_msg0s_0B7_
FN:47,_RNCNvNtCsdYvAweMv4CD_16syslog_generator9transport11record_send0B5_
FN:82,_RNCNvNtCsdYvAweMv4CD_16syslog_generator9transport12record_error0B5_
FN:131,_RNCNvNtCsdYvAweMv4CD_16syslog_generator9transport15drain_as_errors0B5_
FN:90,_RNCNvNtCsdYvAweMv4CD_16syslog_generator9transport8next_msg0B5_
FN:121,_RNvMNtCs3I23rWd8G42_16syslog_generator9transportNtB2_7Framing5parse
FN:145,_RNvNtCs3I23rWd8G42_16syslog_generator9transport10frame_into
FN:40,_RNvNtCs3I23rWd8G42_16syslog_generator9transport11record_send
FN:82,_RNvNtCs3I23rWd8G42_16syslog_generator9transport12record_error
FN:131,_RNvNtCs3I23rWd8G42_16syslog_generator9transport15drain_as_errors
FN:75,_RNvNtCs3I23rWd8G42_16syslog_generator9transport16record_reconnect
FN:70,_RNvNtCs3I23rWd8G42_16syslog_generator9transport19record_send_latency
FN:90,_RNvNtCs3I23rWd8G42_16syslog_generator9transport8next_msg
FN:233,_RNvXs_NtCs3I23rWd8G42_16syslog_generator9transportNtB4_13TransportKindNtB4_9Transport3run
FN:213,_RNvXs_NtCs3I23rWd8G42_16syslog_generator9transportNtB4_13TransportKindNtB4_9Transport4name
FN:334,_RINvNvNtNtCs3I23rWd8G42_16syslog_generator9transport5tests22__assert_transport_impl2__fpEB8_
FN:335,_RNCNvNtNtCs3I23rWd8G42_16syslog_generator9transport5tests22__assert_transport_impl0B7_
FN:333,_RNvNtNtCs3I23rWd8G42_16syslog_generator9transport5tests22__assert_transport_impl
FN:416,_RNCNCNvNtNtCs3I23rWd8G42_16syslog_generator9transport5testss_34v10_4_0_next_msg_blocks_until_recv00B9_
FN:779,_RNCNCNvNtNtCs3I23rWd8G42_16syslog_generator9transport5testss_39phase6_transportkind_tls_run_dispatches00B9_
FN:710,_RNCNCNvNtNtCs3I23rWd8G42_16syslog_generator9transport5testss_43phase6_transportkind_tcp_run_delivers_bytes00B9_
FN:726,_RNCNCNvNtNtCs3I23rWd8G42_16syslog_generator9transport5testss_43phase6_transportkind_tcp_run_delivers_bytes0s_0B9_
FN:616,_RNCNCNvNtNtCs3I23rWd8G42_16syslog_generator9transport5testss_44phase6_transportkind_file_run_writes_to_file00B9_
FN:660,_RNCNCNvNtNtCs3I23rWd8G42_16syslog_generator9transport5testss_46phase6_transportkind_udp_run_delivers_datagram00B9_
FN:384,_RNCNvNtNtCs3I23rWd8G42_16syslog_generator9transport5testss_23v10_4_0_drain_as_errors0B7_
FN:487,_RNCNvNtNtCs3I23rWd8G42_16syslog_generator9transport5testss_27v10_4_0_record_send_latency0B7_
FN:430,_RNCNvNtNtCs3I23rWd8G42_16syslog_generator9transport5testss_30v10_4_0_record_send_increments0B7_
FN:518,_RNCNvNtNtCs3I23rWd8G42_16syslog_generator9transport5testss_31v10_4_0_record_error_increments0B7_
FN:411,_RNCNvNtNtCs3I23rWd8G42_16syslog_generator9transport5testss_34v10_4_0_next_msg_blocks_until_recv0B7_
FN:764,_RNCNvNtNtCs3I23rWd8G42_16syslog_generator9transport5testss_39phase6_transportkind_tls_run_dispatches0B7_
FN:549,_RNCNvNtNtCs3I23rWd8G42_16syslog_generator9transport5testss_40record_send_increments_all_three_metrics0B7_
FN:700,_RNCNvNtNtCs3I23rWd8G42_16syslog_generator9transport5testss_43phase6_transportkind_tcp_run_delivers_bytes0B7_
FN:600,_RNCNvNtNtCs3I23rWd8G42_16syslog_generator9transport5testss_44phase6_transportkind_file_run_writes_to_file0B7_
FN:646,_RNCNvNtNtCs3I23rWd8G42_16syslog_generator9transport5testss_46phase6_transportkind_udp_run_delivers_datagram0B7_
FN:458,_RNCNvNtNtCs3I23rWd8G42_16syslog_generator9transport5testss_48v10_4_0_record_send_cancelled_increments_drained0B7_
FN:96,_RNCNCNvNtCs3I23rWd8G42_16syslog_generator9transport8next_msg00B7_
FN:101,_RNCNCNvNtCs3I23rWd8G42_16syslog_generator9transport8next_msg0s_0B7_
FN:47,_RNCNvNtCs3I23rWd8G42_16syslog_generator9transport11record_send0B5_
FN:82,_RNCNvNtCs3I23rWd8G42_16syslog_generator9transport12record_error0B5_
FN:131,_RNCNvNtCs3I23rWd8G42_16syslog_generator9transport15drain_as_errors0B5_
FN:90,_RNCNvNtCs3I23rWd8G42_16syslog_generator9transport8next_msg0B5_
FN:242,_RNCNvXs_NtCs3I23rWd8G42_16syslog_generator9transportNtB6_13TransportKindNtB6_9Transport3run0B8_
FN:342,_RNvNtNtCs3I23rWd8G42_16syslog_generator9transport5testss_21v10_4_0_framing_parse
FN:324,_RNvNtNtCs3I23rWd8G42_16syslog_generator9transport5testss_22n10_transportkind_name
FN:384,_RNvNtNtCs3I23rWd8G42_16syslog_generator9transport5testss_23v10_4_0_drain_as_errors
FN:474,_RNvNtNtCs3I23rWd8G42_16syslog_generator9transport5testss_27v10_4_0_record_send_latency
FN:430,_RNvNtNtCs3I23rWd8G42_16syslog_generator9transport5testss_30v10_4_0_record_send_increments
FN:518,_RNvNtNtCs3I23rWd8G42_16syslog_generator9transport5testss_31v10_4_0_record_error_increments
FN:581,_RNvNtNtCs3I23rWd8G42_16syslog_generator9transport5testss_32frame_into_appends_correct_bytes
FN:374,_RNvNtNtCs3I23rWd8G42_16syslog_generator9transport5testss_33v10_4_0_frame_into_octet_counting
FN:363,_RNvNtNtCs3I23rWd8G42_16syslog_generator9transport5testss_34v10_4_0_frame_into_non_transparent
FN:411,_RNvNtNtCs3I23rWd8G42_16syslog_generator9transport5testss_34v10_4_0_next_msg_blocks_until_recv
FN:504,_RNvNtNtCs3I23rWd8G42_16syslog_generator9transport5testss_35v10_4_0_record_reconnect_increments
FN:764,_RNvNtNtCs3I23rWd8G42_16syslog_generator9transport5testss_39phase6_transportkind_tls_run_dispatches
FN:549,_RNvNtNtCs3I23rWd8G42_16syslog_generator9transport5testss_40record_send_increments_all_three_metrics
FN:700,_RNvNtNtCs3I23rWd8G42_16syslog_generator9transport5testss_43phase6_transportkind_tcp_run_delivers_bytes
FN:600,_RNvNtNtCs3I23rWd8G42_16syslog_generator9transport5testss_44phase6_transportkind_file_run_writes_to_file
FN:646,_RNvNtNtCs3I23rWd8G42_16syslog_generator9transport5testss_46phase6_transportkind_udp_run_delivers_datagram
FN:534,_RNvNtNtCs3I23rWd8G42_16syslog_generator9transport5testss_47framing_parse_accepts_known_and_rejects_unknown
FN:458,_RNvNtNtCs3I23rWd8G42_16syslog_generator9transport5testss_48v10_4_0_record_send_cancelled_increments_drained
FNDA:0,_RNCNvXs_NtCsdYvAweMv4CD_16syslog_generator9transportNtB6_13TransportKindNtB6_9Transport3run0B8_
FNDA:36,_RNvMNtCsdYvAweMv4CD_16syslog_generator9transportNtB2_7Framing5parse
FNDA:37,_RNvNtCsdYvAweMv4CD_16syslog_generator9transport10frame_into
FNDA:2725,_RNvNtCsdYvAweMv4CD_16syslog_generator9transport11record_send
FNDA:12,_RNvNtCsdYvAweMv4CD_16syslog_generator9transport12record_error
FNDA:4,_RNvNtCsdYvAweMv4CD_16syslog_generator9transport15drain_as_errors
FNDA:0,_RNvNtCsdYvAweMv4CD_16syslog_generator9transport16record_reconnect
FNDA:2725,_RNvNtCsdYvAweMv4CD_16syslog_generator9transport19record_send_latency
FNDA:2772,_RNvNtCsdYvAweMv4CD_16syslog_generator9transport8next_msg
FNDA:0,_RNvXs_NtCsdYvAweMv4CD_16syslog_generator9transportNtB4_13TransportKindNtB4_9Transport3run
FNDA:0,_RNvXs_NtCsdYvAweMv4CD_16syslog_generator9transportNtB4_13TransportKindNtB4_9Transport4name
FNDA:877418,_RNCNCNvNtCsdYvAweMv4CD_16syslog_generator9transport8next_msg00B7_
FNDA:874685,_RNCNCNvNtCsdYvAweMv4CD_16syslog_generator9transport8next_msg0s_0B7_
FNDA:2725,_RNCNvNtCsdYvAweMv4CD_16syslog_generator9transport11record_send0B5_
FNDA:12,_RNCNvNtCsdYvAweMv4CD_16syslog_generator9transport12record_error0B5_
FNDA:4,_RNCNvNtCsdYvAweMv4CD_16syslog_generator9transport15drain_as_errors0B5_
FNDA:2772,_RNCNvNtCsdYvAweMv4CD_16syslog_generator9transport8next_msg0B5_
FNDA:13,_RNvMNtCs3I23rWd8G42_16syslog_generator9transportNtB2_7Framing5parse
FNDA:12,_RNvNtCs3I23rWd8G42_16syslog_generator9transport10frame_into
FNDA:28,_RNvNtCs3I23rWd8G42_16syslog_generator9transport11record_send
FNDA:10,_RNvNtCs3I23rWd8G42_16syslog_generator9transport12record_error
FNDA:2,_RNvNtCs3I23rWd8G42_16syslog_generator9transport15drain_as_errors
FNDA:5,_RNvNtCs3I23rWd8G42_16syslog_generator9transport16record_reconnect
FNDA:28,_RNvNtCs3I23rWd8G42_16syslog_generator9transport19record_send_latency
FNDA:41,_RNvNtCs3I23rWd8G42_16syslog_generator9transport8next_msg
FNDA:4,_RNvXs_NtCs3I23rWd8G42_16syslog_generator9transportNtB4_13TransportKindNtB4_9Transport3run
FNDA:4,_RNvXs_NtCs3I23rWd8G42_16syslog_generator9transportNtB4_13TransportKindNtB4_9Transport4name
FNDA:0,_RINvNvNtNtCs3I23rWd8G42_16syslog_generator9transport5tests22__assert_transport_impl2__fpEB8_
FNDA:0,_RNCNvNtNtCs3I23rWd8G42_16syslog_generator9transport5tests22__assert_transport_impl0B7_
FNDA:0,_RNvNtNtCs3I23rWd8G42_16syslog_generator9transport5tests22__assert_transport_impl
FNDA:1,_RNCNCNvNtNtCs3I23rWd8G42_16syslog_generator9transport5testss_34v10_4_0_next_msg_blocks_until_recv00B9_
FNDA:1,_RNCNCNvNtNtCs3I23rWd8G42_16syslog_generator9transport5testss_39phase6_transportkind_tls_run_dispatches00B9_
FNDA:1,_RNCNCNvNtNtCs3I23rWd8G42_16syslog_generator9transport5testss_43phase6_transportkind_tcp_run_delivers_bytes00B9_
FNDA:1,_RNCNCNvNtNtCs3I23rWd8G42_16syslog_generator9transport5testss_43phase6_transportkind_tcp_run_delivers_bytes0s_0B9_
FNDA:1,_RNCNCNvNtNtCs3I23rWd8G42_16syslog_generator9transport5testss_44phase6_transportkind_file_run_writes_to_file00B9_
FNDA:1,_RNCNCNvNtNtCs3I23rWd8G42_16syslog_generator9transport5testss_46phase6_transportkind_udp_run_delivers_datagram00B9_
FNDA:1,_RNCNvNtNtCs3I23rWd8G42_16syslog_generator9transport5testss_23v10_4_0_drain_as_errors0B7_
FNDA:79,_RNCNvNtNtCs3I23rWd8G42_16syslog_generator9transport5testss_27v10_4_0_record_send_latency0B7_
FNDA:1,_RNCNvNtNtCs3I23rWd8G42_16syslog_generator9transport5testss_30v10_4_0_record_send_increments0B7_
FNDA:1,_RNCNvNtNtCs3I23rWd8G42_16syslog_generator9transport5testss_31v10_4_0_record_error_increments0B7_
FNDA:1,_RNCNvNtNtCs3I23rWd8G42_16syslog_generator9transport5testss_34v10_4_0_next_msg_blocks_until_recv0B7_
FNDA:1,_RNCNvNtNtCs3I23rWd8G42_16syslog_generator9transport5testss_39phase6_transportkind_tls_run_dispatches0B7_
FNDA:1,_RNCNvNtNtCs3I23rWd8G42_16syslog_generator9transport5testss_40record_send_increments_all_three_metrics0B7_
FNDA:1,_RNCNvNtNtCs3I23rWd8G42_16syslog_generator9transport5testss_43phase6_transportkind_tcp_run_delivers_bytes0B7_
FNDA:1,_RNCNvNtNtCs3I23rWd8G42_16syslog_generator9transport5testss_44phase6_transportkind_file_run_writes_to_file0B7_
FNDA:1,_RNCNvNtNtCs3I23rWd8G42_16syslog_generator9transport5testss_46phase6_transportkind_udp_run_delivers_datagram0B7_
FNDA:1,_RNCNvNtNtCs3I23rWd8G42_16syslog_generator9transport5testss_48v10_4_0_record_send_cancelled_increments_drained0B7_
FNDA:232546,_RNCNCNvNtCs3I23rWd8G42_16syslog_generator9transport8next_msg00B7_
FNDA:232519,_RNCNCNvNtCs3I23rWd8G42_16syslog_generator9transport8next_msg0s_0B7_
FNDA:28,_RNCNvNtCs3I23rWd8G42_16syslog_generator9transport11record_send0B5_
FNDA:10,_RNCNvNtCs3I23rWd8G42_16syslog_generator9transport12record_error0B5_
FNDA:2,_RNCNvNtCs3I23rWd8G42_16syslog_generator9transport15drain_as_errors0B5_
FNDA:41,_RNCNvNtCs3I23rWd8G42_16syslog_generator9transport8next_msg0B5_
FNDA:4,_RNCNvXs_NtCs3I23rWd8G42_16syslog_generator9transportNtB6_13TransportKindNtB6_9Transport3run0B8_
FNDA:1,_RNvNtNtCs3I23rWd8G42_16syslog_generator9transport5testss_21v10_4_0_framing_parse
FNDA:1,_RNvNtNtCs3I23rWd8G42_16syslog_generator9transport5testss_22n10_transportkind_name
FNDA:1,_RNvNtNtCs3I23rWd8G42_16syslog_generator9transport5testss_23v10_4_0_drain_as_errors
FNDA:1,_RNvNtNtCs3I23rWd8G42_16syslog_generator9transport5testss_27v10_4_0_record_send_latency
FNDA:1,_RNvNtNtCs3I23rWd8G42_16syslog_generator9transport5testss_30v10_4_0_record_send_increments
FNDA:1,_RNvNtNtCs3I23rWd8G42_16syslog_generator9transport5testss_31v10_4_0_record_error_increments
FNDA:1,_RNvNtNtCs3I23rWd8G42_16syslog_generator9transport5testss_32frame_into_appends_correct_bytes
FNDA:1,_RNvNtNtCs3I23rWd8G42_16syslog_generator9transport5testss_33v10_4_0_frame_into_octet_counting
FNDA:1,_RNvNtNtCs3I23rWd8G42_16syslog_generator9transport5testss_34v10_4_0_frame_into_non_transparent
FNDA:1,_RNvNtNtCs3I23rWd8G42_16syslog_generator9transport5testss_34v10_4_0_next_msg_blocks_until_recv
FNDA:1,_RNvNtNtCs3I23rWd8G42_16syslog_generator9transport5testss_35v10_4_0_record_reconnect_increments
FNDA:1,_RNvNtNtCs3I23rWd8G42_16syslog_generator9transport5testss_39phase6_transportkind_tls_run_dispatches
FNDA:1,_RNvNtNtCs3I23rWd8G42_16syslog_generator9transport5testss_40record_send_increments_all_three_metrics
FNDA:1,_RNvNtNtCs3I23rWd8G42_16syslog_generator9transport5testss_43phase6_transportkind_tcp_run_delivers_bytes
FNDA:1,_RNvNtNtCs3I23rWd8G42_16syslog_generator9transport5testss_44phase6_transportkind_file_run_writes_to_file
FNDA:1,_RNvNtNtCs3I23rWd8G42_16syslog_generator9transport5testss_46phase6_transportkind_udp_run_delivers_datagram
FNDA:1,_RNvNtNtCs3I23rWd8G42_16syslog_generator9transport5testss_47framing_parse_accepts_known_and_rejects_unknown
FNDA:1,_RNvNtNtCs3I23rWd8G42_16syslog_generator9transport5testss_48v10_4_0_record_send_cancelled_increments_drained
FNF:55
FNH:52
DA:40,2753
DA:41,2753
DA:42,2753
DA:43,2753
DA:44,2753
DA:45,2753
DA:46,2753
DA:47,2753
DA:48,2753
DA:49,2753
DA:50,2753
DA:51,2753
DA:52,2753
DA:53,2753
DA:54,2753
DA:55,2753
DA:56,2753
DA:57,2753
DA:58,2753
DA:59,2753
DA:60,2753
DA:61,2753
DA:62,2
DA:63,2
DA:64,2
DA:65,2
DA:66,2751
DA:67,2753
DA:70,2753
DA:71,2753
DA:72,2753
DA:75,5
DA:76,5
DA:77,5
DA:78,5
DA:79,5
DA:80,5
DA:82,22
DA:83,22
DA:84,22
DA:90,2813
DA:94,1109964
DA:95,1109964
DA:96,1109964
DA:97,1109964
DA:98,2760
DA:101,1107204
DA:102,1107204
DA:103,53
DA:104,1107151
DA:105,1107151
DA:109,2813
DA:121,49
DA:122,49
DA:123,49
DA:124,42
DA:126,49
DA:131,6
DA:132,17
DA:133,11
DA:135,6
DA:145,49
DA:146,49
DA:147,44
DA:148,44
DA:149,44
DA:150,44
DA:151,5
DA:152,5
DA:153,5
DA:154,5
DA:155,5
DA:157,49
DA:213,4
DA:214,4
DA:215,1
DA:216,1
DA:217,1
DA:218,1
DA:220,4
DA:233,4
DA:234,4
DA:235,4
DA:236,4
DA:237,4
DA:238,4
DA:239,4
DA:240,4
DA:241,4
DA:242,4
DA:243,4
DA:245,1
DA:246,1
DA:247,1
DA:248,1
DA:249,1
DA:250,1
DA:251,1
DA:252,1
DA:255,1
DA:256,1
DA:257,1
DA:258,1
DA:259,1
DA:260,1
DA:261,1
DA:262,1
DA:263,1
DA:264,1
DA:267,1
DA:268,1
DA:269,1
DA:270,1
DA:271,1
DA:272,1
DA:273,1
DA:274,1
DA:277,1
DA:278,1
DA:279,1
DA:280,1
DA:281,1
DA:282,1
DA:283,1
DA:284,1
DA:285,1
DA:286,1
DA:287,1
DA:290,4
DA:324,1
DA:325,1
DA:326,1
DA:327,1
DA:328,1
DA:329,1
DA:333,0
DA:334,0
DA:335,0
DA:336,0
DA:342,1
DA:343,1
DA:344,1
DA:347,1
DA:348,1
DA:351,1
DA:352,1
DA:355,1
DA:357,1
DA:358,1
DA:359,1
DA:363,1
DA:364,1
DA:365,1
DA:366,1
DA:368,1
DA:369,1
DA:370,1
DA:374,1
DA:375,1
DA:376,1
DA:377,1
DA:378,1
DA:379,1
DA:380,1
DA:384,1
DA:385,1
DA:386,1
DA:387,1
DA:388,1
DA:389,1
DA:391,1
DA:392,1
DA:393,1
DA:396,1
DA:399,1
DA:400,1
DA:401,1
DA:406,1
DA:407,1
DA:411,1
DA:412,1
DA:413,1
DA:415,1
DA:416,1
DA:417,1
DA:418,1
DA:419,1
DA:420,1
DA:422,1
DA:423,1
DA:424,1
DA:430,1
DA:431,1
DA:432,1
DA:434,1
DA:436,1
DA:438,1
DA:439,1
DA:443,1
DA:444,1
DA:445,1
DA:446,1
DA:450,1
DA:451,1
DA:452,1
DA:453,1
DA:454,1
DA:458,1
DA:459,1
DA:460,1
DA:461,1
DA:463,1
DA:465,1
DA:466,1
DA:467,1
DA:468,1
DA:469,1
DA:470,1
DA:474,1
DA:475,1
DA:476,1
DA:477,1
DA:478,1
DA:480,1
DA:481,1
DA:485,1
DA:486,1
DA:487,79
DA:488,1
DA:489,1
DA:490,1
DA:491,1
DA:492,1
DA:493,1
DA:494,1
DA:495,1
DA:496,1
DA:499,1
DA:504,1
DA:505,1
DA:506,1
DA:507,1
DA:509,1
DA:510,1
DA:511,1
DA:514,1
DA:518,1
DA:519,1
DA:520,1
DA:521,1
DA:522,1
DA:524,1
DA:525,1
DA:526,1
DA:527,1
DA:528,1
DA:529,1
DA:534,1
DA:535,1
DA:536,1
DA:537,1
DA:538,1
DA:539,1
DA:542,1
DA:543,1
DA:549,1
DA:551,1
DA:552,1
DA:553,1
DA:554,1
DA:555,1
DA:556,1
DA:557,1
DA:560,1
DA:561,1
DA:562,1
DA:563,1
DA:564,1
DA:565,1
DA:566,1
DA:567,1
DA:568,1
DA:569,1
DA:570,1
DA:571,1
DA:572,1
DA:573,1
DA:574,1
DA:575,1
DA:581,1
DA:583,1
DA:584,1
DA:585,1
DA:587,1
DA:589,1
DA:590,1
DA:592,1
DA:593,1
DA:600,1
DA:601,1
DA:602,1
DA:603,1
DA:604,1
DA:607,1
DA:608,1
DA:609,1
DA:611,1
DA:612,1
DA:613,1
DA:614,1
DA:615,1
DA:616,1
DA:617,1
DA:618,1
DA:619,1
DA:620,1
DA:621,1
DA:622,1
DA:623,1
DA:624,1
DA:625,1
DA:626,1
DA:627,1
DA:628,1
DA:630,1
DA:631,1
DA:632,1
DA:635,1
DA:638,1
DA:639,1
DA:640,1
DA:641,1
DA:646,1
DA:648,1
DA:649,1
DA:650,1
DA:651,1
DA:652,1
DA:653,1
DA:655,1
DA:656,1
DA:657,1
DA:658,1
DA:659,1
DA:660,1
DA:661,1
DA:662,1
DA:663,1
DA:664,1
DA:665,1
DA:666,1
DA:667,1
DA:668,1
DA:669,1
DA:670,1
DA:671,1
DA:672,1
DA:674,1
DA:675,1
DA:678,1
DA:679,1
DA:680,1
DA:681,1
DA:682,1
DA:683,1
DA:684,1
DA:685,1
DA:686,1
DA:689,1
DA:690,1
DA:691,1
DA:692,1
DA:693,1
DA:694,1
DA:700,1
DA:702,1
DA:703,1
DA:704,1
DA:705,1
DA:706,1
DA:707,1
DA:710,1
DA:711,1
DA:713,1
DA:714,1
DA:715,1
DA:717,0
DA:719,1
DA:721,1
DA:722,1
DA:723,1
DA:724,1
DA:725,1
DA:726,1
DA:727,1
DA:728,1
DA:729,1
DA:730,1
DA:731,1
DA:732,1
DA:733,1
DA:734,1
DA:735,1
DA:736,1
DA:737,1
DA:738,1
DA:740,1
DA:741,1
DA:743,1
DA:744,1
DA:745,1
DA:746,1
DA:748,1
DA:750,1
DA:751,1
DA:752,1
DA:753,1
DA:754,1
DA:755,1
DA:764,1
DA:769,1
DA:770,1
DA:771,1
DA:772,1
DA:775,1
DA:776,1
DA:777,1
DA:778,1
DA:779,1
DA:780,1
DA:781,1
DA:782,1
DA:783,1
DA:784,1
DA:785,1
DA:786,1
DA:787,1
DA:788,1
DA:789,1
DA:790,1
DA:791,1
DA:794,1
DA:798,1
DA:799,1
DA:800,1
DA:801,1
DA:806,1
DA:807,1
BRF:0
BRH:0
LF:494
LH:488
end_of_record
SF:/private/tmp/pr17a-worktree/src/transport/reconnect.rs
FN:76,_RNvMs_NtNtCsdYvAweMv4CD_16syslog_generator9transport9reconnectNtB4_15ReconnectConfig7resolve
FN:93,_RNvMs_NtNtCsdYvAweMv4CD_16syslog_generator9transport9reconnectNtB4_15ReconnectConfig8validate
FN:63,_RNvXNtNtCsdYvAweMv4CD_16syslog_generator9transport9reconnectNtB2_15ReconnectConfigNtNtCsl8K0bEFm1U0_4core7default7Default7default
FN:135,_RINvNtNtCsdYvAweMv4CD_16syslog_generator9transport9reconnect22reconnect_with_backoffNCNCNvNtB4_3tcp13run_send_loop0s_0NCNCB1m_s_00NtNtNtNtCs1VQfp0RzfBO_5tokio3net3tcp6stream9TcpStreamuNCB1m_0EB6_
FN:135,_RINvNtNtCsdYvAweMv4CD_16syslog_generator9transport9reconnect22reconnect_with_backoffNCNCNvNtB4_3tls15try_tls_connect0s_0NCNCB1m_s_00INtNtCsiLgNp13JxFC_12tokio_rustls6client9TlsStreamNtNtNtNtCs1VQfp0RzfBO_5tokio3net3tcp6stream9TcpStreamEuNCB1m_0EB6_
FN:144,_RNCINvNtNtCsdYvAweMv4CD_16syslog_generator9transport9reconnect22reconnect_with_backoffNCNCNvNtB6_3tcp13run_send_loop0s_0NCNCB1o_s_00NtNtNtNtCs1VQfp0RzfBO_5tokio3net3tcp6stream9TcpStreamuNCB1o_0E0B8_
FN:144,_RNCINvNtNtCsdYvAweMv4CD_16syslog_generator9transport9reconnect22reconnect_with_backoffNCNCNvNtB6_3tls15try_tls_connect0s_0NCNCB1o_s_00INtNtCsiLgNp13JxFC_12tokio_rustls6client9TlsStreamNtNtNtNtCs1VQfp0RzfBO_5tokio3net3tcp6stream9TcpStreamEuNCB1o_0E0B8_
FN:238,_RNCNCNCNvNtNtNtCs3I23rWd8G42_16syslog_generator9transport9reconnect5testss_21retries_until_success0s_00Bd_
FN:210,_RNCNCNCNvNtNtNtCs3I23rWd8G42_16syslog_generator9transport9reconnect5testss_24success_on_first_attempt0s_00Bd_
FN:428,_RNCNCNCNvNtNtNtCs3I23rWd8G42_16syslog_generator9transport9reconnect5testss_35on_attempt_callback_invoked_per_try0s_00Bd_
FN:368,_RNCNCNCNvNtNtNtCs3I23rWd8G42_16syslog_generator9transport9reconnect5testss_36returns_none_when_shutdown_cancelled0s_00Bd_
FN:333,_RNCNCNCNvNtNtNtCs3I23rWd8G42_16syslog_generator9transport9reconnect5testss_38returns_none_when_max_attempts_is_zero0s_00Bd_
FN:400,_RNCNCNCNvNtNtNtCs3I23rWd8G42_16syslog_generator9transport9reconnect5testss_39infinite_retries_when_max_attempts_none0s_00Bd_
FN:303,_RNCNCNCNvNtNtNtCs3I23rWd8G42_16syslog_generator9transport9reconnect5testss_43returns_some_err_on_last_attempt_with_max_20s_00Bd_
FN:274,_RNCNCNCNvNtNtNtCs3I23rWd8G42_16syslog_generator9transport9reconnect5testss_44returns_some_err_when_max_attempts_exhausted0s_00Bd_
FN:235,_RNCNCNvNtNtNtCs3I23rWd8G42_16syslog_generator9transport9reconnect5testss_21retries_until_success00Bb_
FN:236,_RNCNCNvNtNtNtCs3I23rWd8G42_16syslog_generator9transport9reconnect5testss_21retries_until_success0s_0Bb_
FN:207,_RNCNCNvNtNtNtCs3I23rWd8G42_16syslog_generator9transport9reconnect5testss_24success_on_first_attempt00Bb_
FN:208,_RNCNCNvNtNtNtCs3I23rWd8G42_16syslog_generator9transport9reconnect5testss_24success_on_first_attempt0s_0Bb_
FN:425,_RNCNCNvNtNtNtCs3I23rWd8G42_16syslog_generator9transport9reconnect5testss_35on_attempt_callback_invoked_per_try00Bb_
FN:428,_RNCNCNvNtNtNtCs3I23rWd8G42_16syslog_generator9transport9reconnect5testss_35on_attempt_callback_invoked_per_try0s_0Bb_
FN:364,_RNCNCNvNtNtNtCs3I23rWd8G42_16syslog_generator9transport9reconnect5testss_36returns_none_when_shutdown_cancelled00Bb_
FN:365,_RNCNCNvNtNtNtCs3I23rWd8G42_16syslog_generator9transport9reconnect5testss_36returns_none_when_shutdown_cancelled0s_0Bb_
FN:330,_RNCNCNvNtNtNtCs3I23rWd8G42_16syslog_generator9transport9reconnect5testss_38returns_none_when_max_attempts_is_zero00Bb_
FN:331,_RNCNCNvNtNtNtCs3I23rWd8G42_16syslog_generator9transport9reconnect5testss_38returns_none_when_max_attempts_is_zero0s_0Bb_
FN:397,_RNCNCNvNtNtNtCs3I23rWd8G42_16syslog_generator9transport9reconnect5testss_39infinite_retries_when_max_attempts_none00Bb_
FN:398,_RNCNCNvNtNtNtCs3I23rWd8G42_16syslog_generator9transport9reconnect5testss_39infinite_retries_when_max_attempts_none0s_0Bb_
FN:300,_RNCNCNvNtNtNtCs3I23rWd8G42_16syslog_generator9transport9reconnect5testss_43returns_some_err_on_last_attempt_with_max_200Bb_
FN:301,_RNCNCNvNtNtNtCs3I23rWd8G42_16syslog_generator9transport9reconnect5testss_43returns_some_err_on_last_attempt_with_max_20s_0Bb_
FN:271,_RNCNCNvNtNtNtCs3I23rWd8G42_16syslog_generator9transport9reconnect5testss_44returns_some_err_when_max_attempts_exhausted00Bb_
FN:272,_RNCNCNvNtNtNtCs3I23rWd8G42_16syslog_generator9transport9reconnect5testss_44returns_some_err_when_max_attempts_exhausted0s_0Bb_
FN:222,_RNCNvNtNtNtCs3I23rWd8G42_16syslog_generator9transport9reconnect5testss_21retries_until_success0B9_
FN:194,_RNCNvNtNtNtCs3I23rWd8G42_16syslog_generator9transport9reconnect5testss_24success_on_first_attempt0B9_
FN:435,_RNCNvNtNtNtCs3I23rWd8G42_16syslog_generator9transport9reconnect5testss_27validate_catches_bad_params0B9_
FN:412,_RNCNvNtNtNtCs3I23rWd8G42_16syslog_generator9transport9reconnect5testss_35on_attempt_callback_invoked_per_try0B9_
FN:345,_RNCNvNtNtNtCs3I23rWd8G42_16syslog_generator9transport9reconnect5testss_36returns_none_when_shutdown_cancelled0B9_
FN:315,_RNCNvNtNtNtCs3I23rWd8G42_16syslog_generator9transport9reconnect5testss_38returns_none_when_max_attempts_is_zero0B9_
FN:383,_RNCNvNtNtNtCs3I23rWd8G42_16syslog_generator9transport9reconnect5testss_39infinite_retries_when_max_attempts_none0B9_
FN:286,_RNCNvNtNtNtCs3I23rWd8G42_16syslog_generator9transport9reconnect5testss_43returns_some_err_on_last_attempt_with_max_20B9_
FN:254,_RNCNvNtNtNtCs3I23rWd8G42_16syslog_generator9transport9reconnect5testss_44returns_some_err_when_max_attempts_exhausted0B9_
FN:222,_RNvNtNtNtCs3I23rWd8G42_16syslog_generator9transport9reconnect5testss_21retries_until_success
FN:474,_RNvNtNtNtCs3I23rWd8G42_16syslog_generator9transport9reconnect5testss_22resolve_fills_defaults
FN:194,_RNvNtNtNtCs3I23rWd8G42_16syslog_generator9transport9reconnect5testss_24success_on_first_attempt
FN:435,_RNvNtNtNtCs3I23rWd8G42_16syslog_generator9transport9reconnect5testss_27validate_catches_bad_params
FN:412,_RNvNtNtNtCs3I23rWd8G42_16syslog_generator9transport9reconnect5testss_35on_attempt_callback_invoked_per_try
FN:345,_RNvNtNtNtCs3I23rWd8G42_16syslog_generator9transport9reconnect5testss_36returns_none_when_shutdown_cancelled
FN:315,_RNvNtNtNtCs3I23rWd8G42_16syslog_generator9transport9reconnect5testss_38returns_none_when_max_attempts_is_zero
FN:383,_RNvNtNtNtCs3I23rWd8G42_16syslog_generator9transport9reconnect5testss_39infinite_retries_when_max_attempts_none
FN:286,_RNvNtNtNtCs3I23rWd8G42_16syslog_generator9transport9reconnect5testss_43returns_some_err_on_last_attempt_with_max_2
FN:254,_RNvNtNtNtCs3I23rWd8G42_16syslog_generator9transport9reconnect5testss_44returns_some_err_when_max_attempts_exhausted
FN:76,_RNvMs_NtNtCs3I23rWd8G42_16syslog_generator9transport9reconnectNtB4_15ReconnectConfig7resolve
FN:93,_RNvMs_NtNtCs3I23rWd8G42_16syslog_generator9transport9reconnectNtB4_15ReconnectConfig8validate
FN:63,_RNvXNtNtCs3I23rWd8G42_16syslog_generator9transport9reconnectNtB2_15ReconnectConfigNtNtCsl8K0bEFm1U0_4core7default7Default7default
FN:135,_RINvNtNtCs3I23rWd8G42_16syslog_generator9transport9reconnect22reconnect_with_backoffNCNCNvNtB2_5testss_21retries_until_success0s_0NCNCB1m_s_00lReNCB1m_0EB6_
FN:135,_RINvNtNtCs3I23rWd8G42_16syslog_generator9transport9reconnect22reconnect_with_backoffNCNCNvNtB2_5testss_24success_on_first_attempt0s_0NCNCB1m_s_00lReNCB1m_0EB6_
FN:135,_RINvNtNtCs3I23rWd8G42_16syslog_generator9transport9reconnect22reconnect_with_backoffNCNCNvNtB2_5testss_35on_attempt_callback_invoked_per_try0s_0NCNCB1m_s_00lReNCB1m_0EB6_
FN:135,_RINvNtNtCs3I23rWd8G42_16syslog_generator9transport9reconnect22reconnect_with_backoffNCNCNvNtB2_5testss_36returns_none_when_shutdown_cancelled0s_0NCNCB1m_s_00lReNCB1m_0EB6_
FN:135,_RINvNtNtCs3I23rWd8G42_16syslog_generator9transport9reconnect22reconnect_with_backoffNCNCNvNtB2_5testss_38returns_none_when_max_attempts_is_zero0s_0NCNCB1m_s_00lReNCB1m_0EB6_
FN:135,_RINvNtNtCs3I23rWd8G42_16syslog_generator9transport9reconnect22reconnect_with_backoffNCNCNvNtB2_5testss_39infinite_retries_when_max_attempts_none0s_0NCNCB1m_s_00lReNCB1m_0EB6_
FN:135,_RINvNtNtCs3I23rWd8G42_16syslog_generator9transport9reconnect22reconnect_with_backoffNCNCNvNtB2_5testss_43returns_some_err_on_last_attempt_with_max_20s_0NCNCB1m_s_00lReNCB1m_0EB6_
FN:135,_RINvNtNtCs3I23rWd8G42_16syslog_generator9transport9reconnect22reconnect_with_backoffNCNCNvNtB2_5testss_44returns_some_err_when_max_attempts_exhausted0s_0NCNCB1m_s_00lReNCB1m_0EB6_
FN:135,_RINvNtNtCs3I23rWd8G42_16syslog_generator9transport9reconnect22reconnect_with_backoffNCNCNvNtB4_3tcp13run_send_loop0s_0NCNCB1m_s_00NtNtNtNtCs1VQfp0RzfBO_5tokio3net3tcp6stream9TcpStreamuNCB1m_0EB6_
FN:135,_RINvNtNtCs3I23rWd8G42_16syslog_generator9transport9reconnect22reconnect_with_backoffNCNCNvNtB4_3tls15try_tls_connect0s_0NCNCB1m_s_00INtNtCsiLgNp13JxFC_12tokio_rustls6client9TlsStreamNtNtNtNtCs1VQfp0RzfBO_5tokio3net3tcp6stream9TcpStreamEuNCB1m_0EB6_
FN:144,_RNCINvNtNtCs3I23rWd8G42_16syslog_generator9transport9reconnect22reconnect_with_backoffNCNCNvNtB4_5testss_21retries_until_success0s_0NCNCB1o_s_00lReNCB1o_0E0B8_
FN:144,_RNCINvNtNtCs3I23rWd8G42_16syslog_generator9transport9reconnect22reconnect_with_backoffNCNCNvNtB4_5testss_24success_on_first_attempt0s_0NCNCB1o_s_00lReNCB1o_0E0B8_
FN:144,_RNCINvNtNtCs3I23rWd8G42_16syslog_generator9transport9reconnect22reconnect_with_backoffNCNCNvNtB4_5testss_35on_attempt_callback_invoked_per_try0s_0NCNCB1o_s_00lReNCB1o_0E0B8_
FN:144,_RNCINvNtNtCs3I23rWd8G42_16syslog_generator9transport9reconnect22reconnect_with_backoffNCNCNvNtB4_5testss_36returns_none_when_shutdown_cancelled0s_0NCNCB1o_s_00lReNCB1o_0E0B8_
FN:144,_RNCINvNtNtCs3I23rWd8G42_16syslog_generator9transport9reconnect22reconnect_with_backoffNCNCNvNtB4_5testss_38returns_none_when_max_attempts_is_zero0s_0NCNCB1o_s_00lReNCB1o_0E0B8_
FN:144,_RNCINvNtNtCs3I23rWd8G42_16syslog_generator9transport9reconnect22reconnect_with_backoffNCNCNvNtB4_5testss_39infinite_retries_when_max_attempts_none0s_0NCNCB1o_s_00lReNCB1o_0E0B8_
FN:144,_RNCINvNtNtCs3I23rWd8G42_16syslog_generator9transport9reconnect22reconnect_with_backoffNCNCNvNtB4_5testss_43returns_some_err_on_last_attempt_with_max_20s_0NCNCB1o_s_00lReNCB1o_0E0B8_
FN:144,_RNCINvNtNtCs3I23rWd8G42_16syslog_generator9transport9reconnect22reconnect_with_backoffNCNCNvNtB4_5testss_44returns_some_err_when_max_attempts_exhausted0s_0NCNCB1o_s_00lReNCB1o_0E0B8_
FN:144,_RNCINvNtNtCs3I23rWd8G42_16syslog_generator9transport9reconnect22reconnect_with_backoffNCNCNvNtB6_3tcp13run_send_loop0s_0NCNCB1o_s_00NtNtNtNtCs1VQfp0RzfBO_5tokio3net3tcp6stream9TcpStreamuNCB1o_0E0B8_
FN:144,_RNCINvNtNtCs3I23rWd8G42_16syslog_generator9transport9reconnect22reconnect_with_backoffNCNCNvNtB6_3tls15try_tls_connect0s_0NCNCB1o_s_00INtNtCsiLgNp13JxFC_12tokio_rustls6client9TlsStreamNtNtNtNtCs1VQfp0RzfBO_5tokio3net3tcp6stream9TcpStreamEuNCB1o_0E0B8_
FNDA:36,_RNvMs_NtNtCsdYvAweMv4CD_16syslog_generator9transport9reconnectNtB4_15ReconnectConfig7resolve
FNDA:0,_RNvMs_NtNtCsdYvAweMv4CD_16syslog_generator9transport9reconnectNtB4_15ReconnectConfig8validate
FNDA:36,_RNvXNtNtCsdYvAweMv4CD_16syslog_generator9transport9reconnectNtB2_15ReconnectConfigNtNtCsl8K0bEFm1U0_4core7default7Default7default
FNDA:0,_RINvNtNtCsdYvAweMv4CD_16syslog_generator9transport9reconnect22reconnect_with_backoffNCNCNvNtB4_3tcp13run_send_loop0s_0NCNCB1m_s_00NtNtNtNtCs1VQfp0RzfBO_5tokio3net3tcp6stream9TcpStreamuNCB1m_0EB6_
FNDA:0,_RINvNtNtCsdYvAweMv4CD_16syslog_generator9transport9reconnect22reconnect_with_backoffNCNCNvNtB4_3tls15try_tls_connect0s_0NCNCB1m_s_00INtNtCsiLgNp13JxFC_12tokio_rustls6client9TlsStreamNtNtNtNtCs1VQfp0RzfBO_5tokio3net3tcp6stream9TcpStreamEuNCB1m_0EB6_
FNDA:0,_RNCINvNtNtCsdYvAweMv4CD_16syslog_generator9transport9reconnect22reconnect_with_backoffNCNCNvNtB6_3tcp13run_send_loop0s_0NCNCB1o_s_00NtNtNtNtCs1VQfp0RzfBO_5tokio3net3tcp6stream9TcpStreamuNCB1o_0E0B8_
FNDA:0,_RNCINvNtNtCsdYvAweMv4CD_16syslog_generator9transport9reconnect22reconnect_with_backoffNCNCNvNtB6_3tls15try_tls_connect0s_0NCNCB1o_s_00INtNtCsiLgNp13JxFC_12tokio_rustls6client9TlsStreamNtNtNtNtCs1VQfp0RzfBO_5tokio3net3tcp6stream9TcpStreamEuNCB1o_0E0B8_
FNDA:3,_RNCNCNCNvNtNtNtCs3I23rWd8G42_16syslog_generator9transport9reconnect5testss_21retries_until_success0s_00Bd_
FNDA:1,_RNCNCNCNvNtNtNtCs3I23rWd8G42_16syslog_generator9transport9reconnect5testss_24success_on_first_attempt0s_00Bd_
FNDA:3,_RNCNCNCNvNtNtNtCs3I23rWd8G42_16syslog_generator9transport9reconnect5testss_35on_attempt_callback_invoked_per_try0s_00Bd_
FNDA:2,_RNCNCNCNvNtNtNtCs3I23rWd8G42_16syslog_generator9transport9reconnect5testss_36returns_none_when_shutdown_cancelled0s_00Bd_
FNDA:0,_RNCNCNCNvNtNtNtCs3I23rWd8G42_16syslog_generator9transport9reconnect5testss_38returns_none_when_max_attempts_is_zero0s_00Bd_
FNDA:0,_RNCNCNCNvNtNtNtCs3I23rWd8G42_16syslog_generator9transport9reconnect5testss_39infinite_retries_when_max_attempts_none0s_00Bd_
FNDA:2,_RNCNCNCNvNtNtNtCs3I23rWd8G42_16syslog_generator9transport9reconnect5testss_43returns_some_err_on_last_attempt_with_max_20s_00Bd_
FNDA:3,_RNCNCNCNvNtNtNtCs3I23rWd8G42_16syslog_generator9transport9reconnect5testss_44returns_some_err_when_max_attempts_exhausted0s_00Bd_
FNDA:3,_RNCNCNvNtNtNtCs3I23rWd8G42_16syslog_generator9transport9reconnect5testss_21retries_until_success00Bb_
FNDA:3,_RNCNCNvNtNtNtCs3I23rWd8G42_16syslog_generator9transport9reconnect5testss_21retries_until_success0s_0Bb_
FNDA:1,_RNCNCNvNtNtNtCs3I23rWd8G42_16syslog_generator9transport9reconnect5testss_24success_on_first_attempt00Bb_
FNDA:1,_RNCNCNvNtNtNtCs3I23rWd8G42_16syslog_generator9transport9reconnect5testss_24success_on_first_attempt0s_0Bb_
FNDA:3,_RNCNCNvNtNtNtCs3I23rWd8G42_16syslog_generator9transport9reconnect5testss_35on_attempt_callback_invoked_per_try00Bb_
FNDA:3,_RNCNCNvNtNtNtCs3I23rWd8G42_16syslog_generator9transport9reconnect5testss_35on_attempt_callback_invoked_per_try0s_0Bb_
FNDA:2,_RNCNCNvNtNtNtCs3I23rWd8G42_16syslog_generator9transport9reconnect5testss_36returns_none_when_shutdown_cancelled00Bb_
FNDA:2,_RNCNCNvNtNtNtCs3I23rWd8G42_16syslog_generator9transport9reconnect5testss_36returns_none_when_shutdown_cancelled0s_0Bb_
FNDA:0,_RNCNCNvNtNtNtCs3I23rWd8G42_16syslog_generator9transport9reconnect5testss_38returns_none_when_max_attempts_is_zero00Bb_
FNDA:0,_RNCNCNvNtNtNtCs3I23rWd8G42_16syslog_generator9transport9reconnect5testss_38returns_none_when_max_attempts_is_zero0s_0Bb_
FNDA:0,_RNCNCNvNtNtNtCs3I23rWd8G42_16syslog_generator9transport9reconnect5testss_39infinite_retries_when_max_attempts_none00Bb_
FNDA:0,_RNCNCNvNtNtNtCs3I23rWd8G42_16syslog_generator9transport9reconnect5testss_39infinite_retries_when_max_attempts_none0s_0Bb_
FNDA:2,_RNCNCNvNtNtNtCs3I23rWd8G42_16syslog_generator9transport9reconnect5testss_43returns_some_err_on_last_attempt_with_max_200Bb_
FNDA:2,_RNCNCNvNtNtNtCs3I23rWd8G42_16syslog_generator9transport9reconnect5testss_43returns_some_err_on_last_attempt_with_max_20s_0Bb_
FNDA:3,_RNCNCNvNtNtNtCs3I23rWd8G42_16syslog_generator9transport9reconnect5testss_44returns_some_err_when_max_attempts_exhausted00Bb_
FNDA:3,_RNCNCNvNtNtNtCs3I23rWd8G42_16syslog_generator9transport9reconnect5testss_44returns_some_err_when_max_attempts_exhausted0s_0Bb_
FNDA:1,_RNCNvNtNtNtCs3I23rWd8G42_16syslog_generator9transport9reconnect5testss_21retries_until_success0B9_
FNDA:1,_RNCNvNtNtNtCs3I23rWd8G42_16syslog_generator9transport9reconnect5testss_24success_on_first_attempt0B9_
FNDA:1,_RNCNvNtNtNtCs3I23rWd8G42_16syslog_generator9transport9reconnect5testss_27validate_catches_bad_params0B9_
FNDA:1,_RNCNvNtNtNtCs3I23rWd8G42_16syslog_generator9transport9reconnect5testss_35on_attempt_callback_invoked_per_try0B9_
FNDA:1,_RNCNvNtNtNtCs3I23rWd8G42_16syslog_generator9transport9reconnect5testss_36returns_none_when_shutdown_cancelled0B9_
FNDA:1,_RNCNvNtNtNtCs3I23rWd8G42_16syslog_generator9transport9reconnect5testss_38returns_none_when_max_attempts_is_zero0B9_
FNDA:1,_RNCNvNtNtNtCs3I23rWd8G42_16syslog_generator9transport9reconnect5testss_39infinite_retries_when_max_attempts_none0B9_
FNDA:1,_RNCNvNtNtNtCs3I23rWd8G42_16syslog_generator9transport9reconnect5testss_43returns_some_err_on_last_attempt_with_max_20B9_
FNDA:1,_RNCNvNtNtNtCs3I23rWd8G42_16syslog_generator9transport9reconnect5testss_44returns_some_err_when_max_attempts_exhausted0B9_
FNDA:1,_RNvNtNtNtCs3I23rWd8G42_16syslog_generator9transport9reconnect5testss_21retries_until_success
FNDA:1,_RNvNtNtNtCs3I23rWd8G42_16syslog_generator9transport9reconnect5testss_22resolve_fills_defaults
FNDA:1,_RNvNtNtNtCs3I23rWd8G42_16syslog_generator9transport9reconnect5testss_24success_on_first_attempt
FNDA:1,_RNvNtNtNtCs3I23rWd8G42_16syslog_generator9transport9reconnect5testss_27validate_catches_bad_params
FNDA:1,_RNvNtNtNtCs3I23rWd8G42_16syslog_generator9transport9reconnect5testss_35on_attempt_callback_invoked_per_try
FNDA:1,_RNvNtNtNtCs3I23rWd8G42_16syslog_generator9transport9reconnect5testss_36returns_none_when_shutdown_cancelled
FNDA:1,_RNvNtNtNtCs3I23rWd8G42_16syslog_generator9transport9reconnect5testss_38returns_none_when_max_attempts_is_zero
FNDA:1,_RNvNtNtNtCs3I23rWd8G42_16syslog_generator9transport9reconnect5testss_39infinite_retries_when_max_attempts_none
FNDA:1,_RNvNtNtNtCs3I23rWd8G42_16syslog_generator9transport9reconnect5testss_43returns_some_err_on_last_attempt_with_max_2
FNDA:1,_RNvNtNtNtCs3I23rWd8G42_16syslog_generator9transport9reconnect5testss_44returns_some_err_when_max_attempts_exhausted
FNDA:3,_RNvMs_NtNtCs3I23rWd8G42_16syslog_generator9transport9reconnectNtB4_15ReconnectConfig7resolve
FNDA:5,_RNvMs_NtNtCs3I23rWd8G42_16syslog_generator9transport9reconnectNtB4_15ReconnectConfig8validate
FNDA:13,_RNvXNtNtCs3I23rWd8G42_16syslog_generator9transport9reconnectNtB2_15ReconnectConfigNtNtCsl8K0bEFm1U0_4core7default7Default7default
FNDA:1,_RINvNtNtCs3I23rWd8G42_16syslog_generator9transport9reconnect22reconnect_with_backoffNCNCNvNtB2_5testss_21retries_until_success0s_0NCNCB1m_s_00lReNCB1m_0EB6_
FNDA:1,_RINvNtNtCs3I23rWd8G42_16syslog_generator9transport9reconnect22reconnect_with_backoffNCNCNvNtB2_5testss_24success_on_first_attempt0s_0NCNCB1m_s_00lReNCB1m_0EB6_
FNDA:1,_RINvNtNtCs3I23rWd8G42_16syslog_generator9transport9reconnect22reconnect_with_backoffNCNCNvNtB2_5testss_35on_attempt_callback_invoked_per_try0s_0NCNCB1m_s_00lReNCB1m_0EB6_
FNDA:1,_RINvNtNtCs3I23rWd8G42_16syslog_generator9transport9reconnect22reconnect_with_backoffNCNCNvNtB2_5testss_36returns_none_when_shutdown_cancelled0s_0NCNCB1m_s_00lReNCB1m_0EB6_
FNDA:1,_RINvNtNtCs3I23rWd8G42_16syslog_generator9transport9reconnect22reconnect_with_backoffNCNCNvNtB2_5testss_38returns_none_when_max_attempts_is_zero0s_0NCNCB1m_s_00lReNCB1m_0EB6_
FNDA:1,_RINvNtNtCs3I23rWd8G42_16syslog_generator9transport9reconnect22reconnect_with_backoffNCNCNvNtB2_5testss_39infinite_retries_when_max_attempts_none0s_0NCNCB1m_s_00lReNCB1m_0EB6_
FNDA:1,_RINvNtNtCs3I23rWd8G42_16syslog_generator9transport9reconnect22reconnect_with_backoffNCNCNvNtB2_5testss_43returns_some_err_on_last_attempt_with_max_20s_0NCNCB1m_s_00lReNCB1m_0EB6_
FNDA:1,_RINvNtNtCs3I23rWd8G42_16syslog_generator9transport9reconnect22reconnect_with_backoffNCNCNvNtB2_5testss_44returns_some_err_when_max_attempts_exhausted0s_0NCNCB1m_s_00lReNCB1m_0EB6_
FNDA:0,_RINvNtNtCs3I23rWd8G42_16syslog_generator9transport9reconnect22reconnect_with_backoffNCNCNvNtB4_3tcp13run_send_loop0s_0NCNCB1m_s_00NtNtNtNtCs1VQfp0RzfBO_5tokio3net3tcp6stream9TcpStreamuNCB1m_0EB6_
FNDA:0,_RINvNtNtCs3I23rWd8G42_16syslog_generator9transport9reconnect22reconnect_with_backoffNCNCNvNtB4_3tls15try_tls_connect0s_0NCNCB1m_s_00INtNtCsiLgNp13JxFC_12tokio_rustls6client9TlsStreamNtNtNtNtCs1VQfp0RzfBO_5tokio3net3tcp6stream9TcpStreamEuNCB1m_0EB6_
FNDA:1,_RNCINvNtNtCs3I23rWd8G42_16syslog_generator9transport9reconnect22reconnect_with_backoffNCNCNvNtB4_5testss_21retries_until_success0s_0NCNCB1o_s_00lReNCB1o_0E0B8_
FNDA:1,_RNCINvNtNtCs3I23rWd8G42_16syslog_generator9transport9reconnect22reconnect_with_backoffNCNCNvNtB4_5testss_24success_on_first_attempt0s_0NCNCB1o_s_00lReNCB1o_0E0B8_
FNDA:1,_RNCINvNtNtCs3I23rWd8G42_16syslog_generator9transport9reconnect22reconnect_with_backoffNCNCNvNtB4_5testss_35on_attempt_callback_invoked_per_try0s_0NCNCB1o_s_00lReNCB1o_0E0B8_
FNDA:1,_RNCINvNtNtCs3I23rWd8G42_16syslog_generator9transport9reconnect22reconnect_with_backoffNCNCNvNtB4_5testss_36returns_none_when_shutdown_cancelled0s_0NCNCB1o_s_00lReNCB1o_0E0B8_
FNDA:1,_RNCINvNtNtCs3I23rWd8G42_16syslog_generator9transport9reconnect22reconnect_with_backoffNCNCNvNtB4_5testss_38returns_none_when_max_attempts_is_zero0s_0NCNCB1o_s_00lReNCB1o_0E0B8_
FNDA:1,_RNCINvNtNtCs3I23rWd8G42_16syslog_generator9transport9reconnect22reconnect_with_backoffNCNCNvNtB4_5testss_39infinite_retries_when_max_attempts_none0s_0NCNCB1o_s_00lReNCB1o_0E0B8_
FNDA:1,_RNCINvNtNtCs3I23rWd8G42_16syslog_generator9transport9reconnect22reconnect_with_backoffNCNCNvNtB4_5testss_43returns_some_err_on_last_attempt_with_max_20s_0NCNCB1o_s_00lReNCB1o_0E0B8_
FNDA:1,_RNCINvNtNtCs3I23rWd8G42_16syslog_generator9transport9reconnect22reconnect_with_backoffNCNCNvNtB4_5testss_44returns_some_err_when_max_attempts_exhausted0s_0NCNCB1o_s_00lReNCB1o_0E0B8_
FNDA:0,_RNCINvNtNtCs3I23rWd8G42_16syslog_generator9transport9reconnect22reconnect_with_backoffNCNCNvNtB6_3tcp13run_send_loop0s_0NCNCB1o_s_00NtNtNtNtCs1VQfp0RzfBO_5tokio3net3tcp6stream9TcpStreamuNCB1o_0E0B8_
FNDA:0,_RNCINvNtNtCs3I23rWd8G42_16syslog_generator9transport9reconnect22reconnect_with_backoffNCNCNvNtB6_3tls15try_tls_connect0s_0NCNCB1o_s_00INtNtCsiLgNp13JxFC_12tokio_rustls6client9TlsStreamNtNtNtNtCs1VQfp0RzfBO_5tokio3net3tcp6stream9TcpStreamEuNCB1o_0E0B8_
FNF:48
FNH:42
DA:63,49
DA:64,49
DA:65,49
DA:66,49
DA:67,49
DA:68,49
DA:69,49
DA:70,49
DA:76,39
DA:77,39
DA:78,39
DA:79,39
DA:80,39
DA:81,39
DA:82,39
DA:83,39
DA:84,39
DA:85,39
DA:86,39
DA:87,39
DA:88,39
DA:89,39
DA:93,5
DA:94,5
DA:95,1
DA:96,4
DA:97,4
DA:98,1
DA:99,1
DA:100,1
DA:101,1
DA:102,3
DA:103,3
DA:104,2
DA:105,2
DA:106,2
DA:107,2
DA:108,1
DA:109,1
DA:110,5
DA:135,8
DA:136,8
DA:137,8
DA:138,8
DA:139,8
DA:140,8
DA:141,8
DA:142,8
DA:143,8
DA:144,8
DA:145,8
DA:146,8
DA:147,8
DA:151,8
DA:153,16
DA:154,1
DA:155,15
DA:158,15
DA:159,15
DA:160,1
DA:161,14
DA:162,0
DA:163,14
DA:164,14
DA:165,14
DA:166,2
DA:167,12
DA:168,12
DA:169,12
DA:170,3
DA:171,9
DA:172,0
DA:175,9
DA:176,9
DA:177,9
DA:178,9
DA:179,9
DA:181,8
DA:185,8
DA:194,1
DA:195,1
DA:196,1
DA:197,1
DA:198,1
DA:199,1
DA:200,1
DA:201,1
DA:202,1
DA:203,1
DA:204,1
DA:205,1
DA:206,1
DA:207,1
DA:208,1
DA:209,1
DA:210,1
DA:211,1
DA:212,1
DA:213,1
DA:214,1
DA:216,1
DA:217,1
DA:218,1
DA:219,1
DA:222,1
DA:223,1
DA:224,1
DA:225,1
DA:226,1
DA:227,1
DA:228,1
DA:229,1
DA:230,1
DA:231,1
DA:232,1
DA:233,1
DA:234,1
DA:235,3
DA:236,3
DA:237,3
DA:238,3
DA:239,3
DA:240,3
DA:241,2
DA:243,1
DA:245,3
DA:246,3
DA:248,1
DA:249,1
DA:250,1
DA:251,1
DA:254,1
DA:259,1
DA:260,1
DA:261,1
DA:262,1
DA:263,1
DA:264,1
DA:265,1
DA:266,1
DA:267,1
DA:268,1
DA:269,1
DA:270,1
DA:271,3
DA:272,3
DA:273,3
DA:274,3
DA:275,3
DA:276,3
DA:277,3
DA:278,3
DA:280,1
DA:281,1
DA:282,1
DA:283,1
DA:286,1
DA:288,1
DA:289,1
DA:290,1
DA:291,1
DA:292,1
DA:293,1
DA:294,1
DA:295,1
DA:296,1
DA:297,1
DA:298,1
DA:299,1
DA:300,2
DA:301,2
DA:302,2
DA:303,2
DA:304,2
DA:305,2
DA:306,2
DA:307,2
DA:309,1
DA:310,1
DA:311,1
DA:312,1
DA:315,1
DA:318,1
DA:319,1
DA:320,1
DA:321,1
DA:322,1
DA:323,1
DA:324,1
DA:325,1
DA:326,1
DA:327,1
DA:328,1
DA:329,1
DA:330,0
DA:331,0
DA:332,0
DA:333,0
DA:334,0
DA:335,0
DA:336,0
DA:337,0
DA:339,1
DA:340,1
DA:341,1
DA:342,1
DA:345,1
DA:346,1
DA:347,1
DA:348,1
DA:349,1
DA:350,1
DA:351,1
DA:352,1
DA:357,1
DA:358,1
DA:359,1
DA:360,1
DA:361,1
DA:362,1
DA:363,1
DA:364,2
DA:365,2
DA:366,2
DA:367,2
DA:368,2
DA:369,2
DA:370,2
DA:371,1
DA:372,1
DA:373,1
DA:374,2
DA:375,2
DA:376,2
DA:378,1
DA:379,1
DA:380,1
DA:383,1
DA:384,1
DA:385,1
DA:386,1
DA:387,1
DA:388,1
DA:389,1
DA:390,1
DA:391,1
DA:392,1
DA:393,1
DA:394,1
DA:395,1
DA:396,1
DA:397,0
DA:398,0
DA:399,0
DA:400,0
DA:401,0
DA:402,0
DA:403,0
DA:404,0
DA:406,1
DA:407,1
DA:408,1
DA:409,1
DA:412,1
DA:413,1
DA:414,1
DA:415,1
DA:416,1
DA:417,1
DA:418,1
DA:419,1
DA:420,1
DA:421,1
DA:422,1
DA:423,1
DA:424,1
DA:425,3
DA:426,3
DA:427,3
DA:428,6
DA:430,1
DA:431,1
DA:432,1
DA:435,1
DA:437,1
DA:438,1
DA:439,1
DA:440,1
DA:441,1
DA:442,1
DA:445,1
DA:446,1
DA:447,1
DA:448,1
DA:449,1
DA:450,1
DA:451,1
DA:454,1
DA:455,1
DA:456,1
DA:457,1
DA:458,1
DA:459,1
DA:462,1
DA:463,1
DA:464,1
DA:465,1
DA:466,1
DA:467,1
DA:470,1
DA:471,1
DA:474,1
DA:475,1
DA:476,1
DA:477,1
DA:478,1
DA:479,1
DA:481,1
DA:482,1
DA:483,1
DA:484,1
DA:485,1
DA:486,1
BRF:0
BRH:0
LF:342
LH:321
end_of_record
SF:/private/tmp/pr17a-worktree/src/transport/tcp.rs
FN:102,_RNCNCNCNvNtNtCsdYvAweMv4CD_16syslog_generator9transport3tcp13run_send_loop0s_00Bb_
FN:95,_RNCNCNvNtNtCsdYvAweMv4CD_16syslog_generator9transport3tcp13run_send_loop00B9_
FN:100,_RNCNCNvNtNtCsdYvAweMv4CD_16syslog_generator9transport3tcp13run_send_loop0s_0B9_
FN:76,_RNCNvNtNtCsdYvAweMv4CD_16syslog_generator9transport3tcp13run_send_loop0B7_
FN:45,_RNCNvNtNtCsdYvAweMv4CD_16syslog_generator9transport3tcp17target_sender_tcp0B7_
FN:67,_RNvNtNtCsdYvAweMv4CD_16syslog_generator9transport3tcp13run_send_loop
FN:37,_RNvNtNtCsdYvAweMv4CD_16syslog_generator9transport3tcp17target_sender_tcp
FN:102,_RNCNCNCNvNtNtCs3I23rWd8G42_16syslog_generator9transport3tcp13run_send_loop0s_00Bb_
FN:95,_RNCNCNvNtNtCs3I23rWd8G42_16syslog_generator9transport3tcp13run_send_loop00B9_
FN:100,_RNCNCNvNtNtCs3I23rWd8G42_16syslog_generator9transport3tcp13run_send_loop0s_0B9_
FN:76,_RNCNvNtNtCs3I23rWd8G42_16syslog_generator9transport3tcp13run_send_loop0B7_
FN:45,_RNCNvNtNtCs3I23rWd8G42_16syslog_generator9transport3tcp17target_sender_tcp0B7_
FN:207,_RNvNtNtNtCs3I23rWd8G42_16syslog_generator9transport3tcp5testss_33tcp_sender_octet_counting_framing
FN:167,_RNvNtNtNtCs3I23rWd8G42_16syslog_generator9transport3tcp5testss_39tcp_sender_delivers_message_to_listener
FN:250,_RNvNtNtNtCs3I23rWd8G42_16syslog_generator9transport3tcp5testss_40tcp_sender_exits_on_shutdown_after_drain
FN:314,_RNvNtNtNtCs3I23rWd8G42_16syslog_generator9transport3tcp5testss_47record_error_increments_errors_total_per_target
FN:292,_RNvNtNtNtCs3I23rWd8G42_16syslog_generator9transport3tcp5testss_52record_reconnect_increments_metric_with_target_label
FN:210,_RNCNCNvNtNtNtCs3I23rWd8G42_16syslog_generator9transport3tcp5testss_33tcp_sender_octet_counting_framing00Bb_
FN:171,_RNCNCNvNtNtNtCs3I23rWd8G42_16syslog_generator9transport3tcp5testss_39tcp_sender_delivers_message_to_listener00Bb_
FN:255,_RNCNCNvNtNtNtCs3I23rWd8G42_16syslog_generator9transport3tcp5testss_40tcp_sender_exits_on_shutdown_after_drain00Bb_
FN:207,_RNCNvNtNtNtCs3I23rWd8G42_16syslog_generator9transport3tcp5testss_33tcp_sender_octet_counting_framing0B9_
FN:167,_RNCNvNtNtNtCs3I23rWd8G42_16syslog_generator9transport3tcp5testss_39tcp_sender_delivers_message_to_listener0B9_
FN:250,_RNCNvNtNtNtCs3I23rWd8G42_16syslog_generator9transport3tcp5testss_40tcp_sender_exits_on_shutdown_after_drain0B9_
FN:314,_RNCNvNtNtNtCs3I23rWd8G42_16syslog_generator9transport3tcp5testss_47record_error_increments_errors_total_per_target0B9_
FN:67,_RNvNtNtCs3I23rWd8G42_16syslog_generator9transport3tcp13run_send_loop
FN:37,_RNvNtNtCs3I23rWd8G42_16syslog_generator9transport3tcp17target_sender_tcp
FNDA:0,_RNCNCNCNvNtNtCsdYvAweMv4CD_16syslog_generator9transport3tcp13run_send_loop0s_00Bb_
FNDA:0,_RNCNCNvNtNtCsdYvAweMv4CD_16syslog_generator9transport3tcp13run_send_loop00B9_
FNDA:0,_RNCNCNvNtNtCsdYvAweMv4CD_16syslog_generator9transport3tcp13run_send_loop0s_0B9_
FNDA:7,_RNCNvNtNtCsdYvAweMv4CD_16syslog_generator9transport3tcp13run_send_loop0B7_
FNDA:10,_RNCNvNtNtCsdYvAweMv4CD_16syslog_generator9transport3tcp17target_sender_tcp0B7_
FNDA:7,_RNvNtNtCsdYvAweMv4CD_16syslog_generator9transport3tcp13run_send_loop
FNDA:10,_RNvNtNtCsdYvAweMv4CD_16syslog_generator9transport3tcp17target_sender_tcp
FNDA:0,_RNCNCNCNvNtNtCs3I23rWd8G42_16syslog_generator9transport3tcp13run_send_loop0s_00Bb_
FNDA:0,_RNCNCNvNtNtCs3I23rWd8G42_16syslog_generator9transport3tcp13run_send_loop00B9_
FNDA:0,_RNCNCNvNtNtCs3I23rWd8G42_16syslog_generator9transport3tcp13run_send_loop0s_0B9_
FNDA:4,_RNCNvNtNtCs3I23rWd8G42_16syslog_generator9transport3tcp13run_send_loop0B7_
FNDA:4,_RNCNvNtNtCs3I23rWd8G42_16syslog_generator9transport3tcp17target_sender_tcp0B7_
FNDA:1,_RNvNtNtNtCs3I23rWd8G42_16syslog_generator9transport3tcp5testss_33tcp_sender_octet_counting_framing
FNDA:1,_RNvNtNtNtCs3I23rWd8G42_16syslog_generator9transport3tcp5testss_39tcp_sender_delivers_message_to_listener
FNDA:1,_RNvNtNtNtCs3I23rWd8G42_16syslog_generator9transport3tcp5testss_40tcp_sender_exits_on_shutdown_after_drain
FNDA:1,_RNvNtNtNtCs3I23rWd8G42_16syslog_generator9transport3tcp5testss_47record_error_increments_errors_total_per_target
FNDA:1,_RNvNtNtNtCs3I23rWd8G42_16syslog_generator9transport3tcp5testss_52record_reconnect_increments_metric_with_target_label
FNDA:1,_RNCNCNvNtNtNtCs3I23rWd8G42_16syslog_generator9transport3tcp5testss_33tcp_sender_octet_counting_framing00Bb_
FNDA:1,_RNCNCNvNtNtNtCs3I23rWd8G42_16syslog_generator9transport3tcp5testss_39tcp_sender_delivers_message_to_listener00Bb_
FNDA:1,_RNCNCNvNtNtNtCs3I23rWd8G42_16syslog_generator9transport3tcp5testss_40tcp_sender_exits_on_shutdown_after_drain00Bb_
FNDA:1,_RNCNvNtNtNtCs3I23rWd8G42_16syslog_generator9transport3tcp5testss_33tcp_sender_octet_counting_framing0B9_
FNDA:1,_RNCNvNtNtNtCs3I23rWd8G42_16syslog_generator9transport3tcp5testss_39tcp_sender_delivers_message_to_listener0B9_
FNDA:1,_RNCNvNtNtNtCs3I23rWd8G42_16syslog_generator9transport3tcp5testss_40tcp_sender_exits_on_shutdown_after_drain0B9_
FNDA:1,_RNCNvNtNtNtCs3I23rWd8G42_16syslog_generator9transport3tcp5testss_47record_error_increments_errors_total_per_target0B9_
FNDA:4,_RNvNtNtCs3I23rWd8G42_16syslog_generator9transport3tcp13run_send_loop
FNDA:4,_RNvNtNtCs3I23rWd8G42_16syslog_generator9transport3tcp17target_sender_tcp
FNF:19
FNH:16
DA:37,14
DA:38,14
DA:39,14
DA:40,14
DA:41,14
DA:42,14
DA:43,14
DA:44,14
DA:45,14
DA:46,14
DA:47,14
DA:48,11
DA:54,3
DA:55,3
DA:56,3
DA:59,11
DA:60,11
DA:61,11
DA:62,11
DA:63,14
DA:67,11
DA:68,11
DA:69,11
DA:70,11
DA:71,11
DA:72,11
DA:73,11
DA:74,11
DA:75,11
DA:76,11
DA:78,11
DA:79,51
DA:81,40
DA:82,40
DA:83,40
DA:84,0
DA:85,0
DA:91,0
DA:92,0
DA:93,0
DA:94,0
DA:95,0
DA:98,0
DA:99,0
DA:100,0
DA:101,0
DA:102,0
DA:103,0
DA:105,0
DA:106,0
DA:107,0
DA:108,0
DA:110,0
DA:111,0
DA:112,0
DA:113,0
DA:114,0
DA:115,0
DA:116,0
DA:117,0
DA:118,0
DA:119,0
DA:120,0
DA:121,0
DA:122,0
DA:124,0
DA:130,0
DA:131,0
DA:135,40
DA:136,40
DA:137,40
DA:138,40
DA:139,40
DA:140,40
DA:141,40
DA:142,40
DA:143,40
DA:144,40
DA:148,40
DA:150,11
DA:151,11
DA:167,1
DA:168,1
DA:169,1
DA:171,1
DA:172,1
DA:173,1
DA:174,1
DA:175,1
DA:176,1
DA:178,1
DA:179,1
DA:180,1
DA:181,1
DA:182,1
DA:183,1
DA:184,1
DA:185,1
DA:186,1
DA:187,1
DA:188,1
DA:189,1
DA:192,3
DA:193,3
DA:195,1
DA:196,1
DA:197,1
DA:198,1
DA:199,1
DA:200,1
DA:201,1
DA:202,1
DA:207,1
DA:208,1
DA:209,1
DA:210,1
DA:211,1
DA:212,1
DA:213,1
DA:214,1
DA:215,1
DA:216,1
DA:217,1
DA:218,1
DA:219,1
DA:220,1
DA:221,1
DA:222,1
DA:223,1
DA:224,1
DA:225,1
DA:226,1
DA:227,1
DA:229,1
DA:230,1
DA:231,1
DA:232,1
DA:233,1
DA:235,1
DA:236,1
DA:237,1
DA:238,1
DA:239,1
DA:240,1
DA:241,1
DA:250,1
DA:252,1
DA:253,1
DA:255,1
DA:256,1
DA:258,1
DA:259,0
DA:260,1
DA:261,1
DA:262,1
DA:263,1
DA:264,1
DA:265,1
DA:266,1
DA:267,1
DA:268,1
DA:269,1
DA:270,1
DA:271,1
DA:274,1
DA:276,1
DA:277,1
DA:279,1
DA:280,1
DA:281,1
DA:282,1
DA:283,1
DA:284,1
DA:285,1
DA:286,1
DA:287,1
DA:292,1
DA:294,1
DA:295,1
DA:296,1
DA:297,1
DA:299,1
DA:300,1
DA:301,1
DA:302,1
DA:303,1
DA:304,1
DA:305,1
DA:306,1
DA:307,1
DA:308,1
DA:309,1
DA:314,1
DA:316,1
DA:317,1
DA:318,1
DA:319,1
DA:320,1
DA:321,1
DA:322,1
DA:323,1
DA:324,1
DA:325,1
DA:326,1
DA:327,1
DA:328,1
DA:329,1
DA:330,1
BRF:0
BRH:0
LF:223
LH:189
end_of_record
SF:/private/tmp/pr17a-worktree/src/transport/tls.rs
FN:47,_RNvMNtNtCsdYvAweMv4CD_16syslog_generator9transport3tlsNtB2_10TlsVersion20as_protocol_versions
FN:506,_RNvNtNtCsdYvAweMv4CD_16syslog_generator9transport3tls11tls_connect
FN:391,_RNvNtNtCsdYvAweMv4CD_16syslog_generator9transport3tls13run_send_loop
FN:468,_RNvNtNtCsdYvAweMv4CD_16syslog_generator9transport3tls15try_tls_connect
FN:326,_RNvNtNtCsdYvAweMv4CD_16syslog_generator9transport3tls17target_sender_tls
FN:107,_RNvNtNtCsdYvAweMv4CD_16syslog_generator9transport3tls18parse_cipher_suite
FN:157,_RNvNtNtCsdYvAweMv4CD_16syslog_generator9transport3tls19build_tls_connector
FN:307,_RNvNtNtCsdYvAweMv4CD_16syslog_generator9transport3tls21parse_tls_min_version
FN:257,_RNvXs_NtNtCsdYvAweMv4CD_16syslog_generator9transport3tlsNtB4_14NoCertVerifierNtNtCsi9JM3t3PYpK_6rustls6verify18ServerCertVerifier18verify_server_cert
FN:268,_RNvXs_NtNtCsdYvAweMv4CD_16syslog_generator9transport3tlsNtB4_14NoCertVerifierNtNtCsi9JM3t3PYpK_6rustls6verify18ServerCertVerifier22verify_tls12_signature
FN:277,_RNvXs_NtNtCsdYvAweMv4CD_16syslog_generator9transport3tlsNtB4_14NoCertVerifierNtNtCsi9JM3t3PYpK_6rustls6verify18ServerCertVerifier22verify_tls13_signature
FN:286,_RNvXs_NtNtCsdYvAweMv4CD_16syslog_generator9transport3tlsNtB4_14NoCertVerifierNtNtCsi9JM3t3PYpK_6rustls6verify18ServerCertVerifier24supported_verify_schemes
FN:489,_RNCNCNCNvNtNtCsdYvAweMv4CD_16syslog_generator9transport3tls15try_tls_connect0s_00Bb_
FN:482,_RNCNCNvNtNtCsdYvAweMv4CD_16syslog_generator9transport3tls15try_tls_connect00B9_
FN:485,_RNCNCNvNtNtCsdYvAweMv4CD_16syslog_generator9transport3tls15try_tls_connect0s_0B9_
FN:510,_RNCNvNtNtCsdYvAweMv4CD_16syslog_generator9transport3tls11tls_connect0B7_
FN:402,_RNCNvNtNtCsdYvAweMv4CD_16syslog_generator9transport3tls13run_send_loop0B7_
FN:475,_RNCNvNtNtCsdYvAweMv4CD_16syslog_generator9transport3tls15try_tls_connect0B7_
FN:335,_RNCNvNtNtCsdYvAweMv4CD_16syslog_generator9transport3tls17target_sender_tls0B7_
FN:169,_RNCNvNtNtCsdYvAweMv4CD_16syslog_generator9transport3tls19build_tls_connector0B7_
FN:205,_RNCNvNtNtCsdYvAweMv4CD_16syslog_generator9transport3tls19build_tls_connectors0_0B7_
FN:208,_RNCNvNtNtCsdYvAweMv4CD_16syslog_generator9transport3tls19build_tls_connectors1_0B7_
FN:228,_RNCNvNtNtCsdYvAweMv4CD_16syslog_generator9transport3tls19build_tls_connectors2_0B7_
FN:239,_RNCNvNtNtCsdYvAweMv4CD_16syslog_generator9transport3tls19build_tls_connectors3_0B7_
FN:186,_RNCNvNtNtCsdYvAweMv4CD_16syslog_generator9transport3tls19build_tls_connectors_0B7_
FN:47,_RNvMNtNtCs3I23rWd8G42_16syslog_generator9transport3tlsNtB2_10TlsVersion20as_protocol_versions
FN:506,_RNvNtNtCs3I23rWd8G42_16syslog_generator9transport3tls11tls_connect
FN:391,_RNvNtNtCs3I23rWd8G42_16syslog_generator9transport3tls13run_send_loop
FN:468,_RNvNtNtCs3I23rWd8G42_16syslog_generator9transport3tls15try_tls_connect
FN:326,_RNvNtNtCs3I23rWd8G42_16syslog_generator9transport3tls17target_sender_tls
FN:107,_RNvNtNtCs3I23rWd8G42_16syslog_generator9transport3tls18parse_cipher_suite
FN:157,_RNvNtNtCs3I23rWd8G42_16syslog_generator9transport3tls19build_tls_connector
FN:307,_RNvNtNtCs3I23rWd8G42_16syslog_generator9transport3tls21parse_tls_min_version
FN:257,_RNvXs_NtNtCs3I23rWd8G42_16syslog_generator9transport3tlsNtB4_14NoCertVerifierNtNtCsi9JM3t3PYpK_6rustls6verify18ServerCertVerifier18verify_server_cert
FN:268,_RNvXs_NtNtCs3I23rWd8G42_16syslog_generator9transport3tlsNtB4_14NoCertVerifierNtNtCsi9JM3t3PYpK_6rustls6verify18ServerCertVerifier22verify_tls12_signature
FN:277,_RNvXs_NtNtCs3I23rWd8G42_16syslog_generator9transport3tlsNtB4_14NoCertVerifierNtNtCsi9JM3t3PYpK_6rustls6verify18ServerCertVerifier22verify_tls13_signature
FN:286,_RNvXs_NtNtCs3I23rWd8G42_16syslog_generator9transport3tlsNtB4_14NoCertVerifierNtNtCsi9JM3t3PYpK_6rustls6verify18ServerCertVerifier24supported_verify_schemes
FN:521,_RNvNtNtNtCs3I23rWd8G42_16syslog_generator9transport3tls5testss_31parse_tls_version_accepts_valid
FN:537,_RNvNtNtNtCs3I23rWd8G42_16syslog_generator9transport3tls5testss_32parse_cipher_suite_accepts_known
FN:528,_RNvNtNtNtCs3I23rWd8G42_16syslog_generator9transport3tls5testss_33parse_tls_version_rejects_invalid
FN:546,_RNvNtNtNtCs3I23rWd8G42_16syslog_generator9transport3tls5testss_34parse_cipher_suite_rejects_unknown
FN:581,_RNvNtNtNtCs3I23rWd8G42_16syslog_generator9transport3tls5testss_38build_connector_with_insecure_succeeds
FN:571,_RNvNtNtNtCs3I23rWd8G42_16syslog_generator9transport3tls5testss_39build_connector_with_empty_ca_pem_fails
FN:553,_RNvNtNtNtCs3I23rWd8G42_16syslog_generator9transport3tls5testss_39tls_params_default_has_no_cipher_suites
FN:603,_RNvNtNtNtCs3I23rWd8G42_16syslog_generator9transport3tls5testss_40build_connector_with_mtls_bad_cert_fails
FN:695,_RNvNtNtNtCs3I23rWd8G42_16syslog_generator9transport3tls5testss_41v10_4_0_tls_params_clone_preserves_fields
FN:561,_RNvNtNtNtCs3I23rWd8G42_16syslog_generator9transport3tls5testss_43build_connector_with_default_roots_succeeds
FN:617,_RNvNtNtNtCs3I23rWd8G42_16syslog_generator9transport3tls5testss_43v10_4_0_parse_cipher_suite_all_known_suites
FN:651,_RNvNtNtNtCs3I23rWd8G42_16syslog_generator9transport3tls5testss_47v10_4_0_build_connector_tls12_insecure_combined
FN:591,_RNvNtNtNtCs3I23rWd8G42_16syslog_generator9transport3tls5testss_50build_connector_with_custom_cipher_suites_succeeds
FN:663,_RNvNtNtNtCs3I23rWd8G42_16syslog_generator9transport3tls5testss_55v10_4_0_build_connector_cipher_suites_with_min_protocol
FN:637,_RNvNtNtNtCs3I23rWd8G42_16syslog_generator9transport3tls5testss_56v10_4_0_parse_cipher_suite_error_message_lists_supported
FN:680,_RNvNtNtNtCs3I23rWd8G42_16syslog_generator9transport3tls5testss_58v10_4_0_build_connector_tls13_cipher_suites_with_tls13_min
FN:489,_RNCNCNCNvNtNtCs3I23rWd8G42_16syslog_generator9transport3tls15try_tls_connect0s_00Bb_
FN:482,_RNCNCNvNtNtCs3I23rWd8G42_16syslog_generator9transport3tls15try_tls_connect00B9_
FN:485,_RNCNCNvNtNtCs3I23rWd8G42_16syslog_generator9transport3tls15try_tls_connect0s_0B9_
FN:510,_RNCNvNtNtCs3I23rWd8G42_16syslog_generator9transport3tls11tls_connect0B7_
FN:402,_RNCNvNtNtCs3I23rWd8G42_16syslog_generator9transport3tls13run_send_loop0B7_
FN:475,_RNCNvNtNtCs3I23rWd8G42_16syslog_generator9transport3tls15try_tls_connect0B7_
FN:335,_RNCNvNtNtCs3I23rWd8G42_16syslog_generator9transport3tls17target_sender_tls0B7_
FN:169,_RNCNvNtNtCs3I23rWd8G42_16syslog_generator9transport3tls19build_tls_connector0B7_
FN:205,_RNCNvNtNtCs3I23rWd8G42_16syslog_generator9transport3tls19build_tls_connectors0_0B7_
FN:208,_RNCNvNtNtCs3I23rWd8G42_16syslog_generator9transport3tls19build_tls_connectors1_0B7_
FN:228,_RNCNvNtNtCs3I23rWd8G42_16syslog_generator9transport3tls19build_tls_connectors2_0B7_
FN:239,_RNCNvNtNtCs3I23rWd8G42_16syslog_generator9transport3tls19build_tls_connectors3_0B7_
FN:186,_RNCNvNtNtCs3I23rWd8G42_16syslog_generator9transport3tls19build_tls_connectors_0B7_
FN:706,_RNCNvNtNtNtCs3I23rWd8G42_16syslog_generator9transport3tls5testss_41v10_4_0_tls_params_clone_preserves_fields0B9_
FNDA:2,_RNvMNtNtCsdYvAweMv4CD_16syslog_generator9transport3tlsNtB2_10TlsVersion20as_protocol_versions
FNDA:4,_RNvNtNtCsdYvAweMv4CD_16syslog_generator9transport3tls11tls_connect
FNDA:3,_RNvNtNtCsdYvAweMv4CD_16syslog_generator9transport3tls13run_send_loop
FNDA:0,_RNvNtNtCsdYvAweMv4CD_16syslog_generator9transport3tls15try_tls_connect
FNDA:4,_RNvNtNtCsdYvAweMv4CD_16syslog_generator9transport3tls17target_sender_tls
FNDA:7,_RNvNtNtCsdYvAweMv4CD_16syslog_generator9transport3tls18parse_cipher_suite
FNDA:8,_RNvNtNtCsdYvAweMv4CD_16syslog_generator9transport3tls19build_tls_connector
FNDA:8,_RNvNtNtCsdYvAweMv4CD_16syslog_generator9transport3tls21parse_tls_min_version
FNDA:0,_RNvXs_NtNtCsdYvAweMv4CD_16syslog_generator9transport3tlsNtB4_14NoCertVerifierNtNtCsi9JM3t3PYpK_6rustls6verify18ServerCertVerifier18verify_server_cert
FNDA:0,_RNvXs_NtNtCsdYvAweMv4CD_16syslog_generator9transport3tlsNtB4_14NoCertVerifierNtNtCsi9JM3t3PYpK_6rustls6verify18ServerCertVerifier22verify_tls12_signature
FNDA:0,_RNvXs_NtNtCsdYvAweMv4CD_16syslog_generator9transport3tlsNtB4_14NoCertVerifierNtNtCsi9JM3t3PYpK_6rustls6verify18ServerCertVerifier22verify_tls13_signature
FNDA:0,_RNvXs_NtNtCsdYvAweMv4CD_16syslog_generator9transport3tlsNtB4_14NoCertVerifierNtNtCsi9JM3t3PYpK_6rustls6verify18ServerCertVerifier24supported_verify_schemes
FNDA:0,_RNCNCNCNvNtNtCsdYvAweMv4CD_16syslog_generator9transport3tls15try_tls_connect0s_00Bb_
FNDA:0,_RNCNCNvNtNtCsdYvAweMv4CD_16syslog_generator9transport3tls15try_tls_connect00B9_
FNDA:0,_RNCNCNvNtNtCsdYvAweMv4CD_16syslog_generator9transport3tls15try_tls_connect0s_0B9_
FNDA:4,_RNCNvNtNtCsdYvAweMv4CD_16syslog_generator9transport3tls11tls_connect0B7_
FNDA:3,_RNCNvNtNtCsdYvAweMv4CD_16syslog_generator9transport3tls13run_send_loop0B7_
FNDA:0,_RNCNvNtNtCsdYvAweMv4CD_16syslog_generator9transport3tls15try_tls_connect0B7_
FNDA:4,_RNCNvNtNtCsdYvAweMv4CD_16syslog_generator9transport3tls17target_sender_tls0B7_
FNDA:0,_RNCNvNtNtCsdYvAweMv4CD_16syslog_generator9transport3tls19build_tls_connector0B7_
FNDA:2,_RNCNvNtNtCsdYvAweMv4CD_16syslog_generator9transport3tls19build_tls_connectors0_0B7_
FNDA:0,_RNCNvNtNtCsdYvAweMv4CD_16syslog_generator9transport3tls19build_tls_connectors1_0B7_
FNDA:0,_RNCNvNtNtCsdYvAweMv4CD_16syslog_generator9transport3tls19build_tls_connectors2_0B7_
FNDA:0,_RNCNvNtNtCsdYvAweMv4CD_16syslog_generator9transport3tls19build_tls_connectors3_0B7_
FNDA:0,_RNCNvNtNtCsdYvAweMv4CD_16syslog_generator9transport3tls19build_tls_connectors_0B7_
FNDA:3,_RNvMNtNtCs3I23rWd8G42_16syslog_generator9transport3tlsNtB2_10TlsVersion20as_protocol_versions
FNDA:1,_RNvNtNtCs3I23rWd8G42_16syslog_generator9transport3tls11tls_connect
FNDA:0,_RNvNtNtCs3I23rWd8G42_16syslog_generator9transport3tls13run_send_loop
FNDA:0,_RNvNtNtCs3I23rWd8G42_16syslog_generator9transport3tls15try_tls_connect
FNDA:1,_RNvNtNtCs3I23rWd8G42_16syslog_generator9transport3tls17target_sender_tls
FNDA:13,_RNvNtNtCs3I23rWd8G42_16syslog_generator9transport3tls18parse_cipher_suite
FNDA:9,_RNvNtNtCs3I23rWd8G42_16syslog_generator9transport3tls19build_tls_connector
FNDA:8,_RNvNtNtCs3I23rWd8G42_16syslog_generator9transport3tls21parse_tls_min_version
FNDA:0,_RNvXs_NtNtCs3I23rWd8G42_16syslog_generator9transport3tlsNtB4_14NoCertVerifierNtNtCsi9JM3t3PYpK_6rustls6verify18ServerCertVerifier18verify_server_cert
FNDA:0,_RNvXs_NtNtCs3I23rWd8G42_16syslog_generator9transport3tlsNtB4_14NoCertVerifierNtNtCsi9JM3t3PYpK_6rustls6verify18ServerCertVerifier22verify_tls12_signature
FNDA:0,_RNvXs_NtNtCs3I23rWd8G42_16syslog_generator9transport3tlsNtB4_14NoCertVerifierNtNtCsi9JM3t3PYpK_6rustls6verify18ServerCertVerifier22verify_tls13_signature
FNDA:0,_RNvXs_NtNtCs3I23rWd8G42_16syslog_generator9transport3tlsNtB4_14NoCertVerifierNtNtCsi9JM3t3PYpK_6rustls6verify18ServerCertVerifier24supported_verify_schemes
FNDA:1,_RNvNtNtNtCs3I23rWd8G42_16syslog_generator9transport3tls5testss_31parse_tls_version_accepts_valid
FNDA:1,_RNvNtNtNtCs3I23rWd8G42_16syslog_generator9transport3tls5testss_32parse_cipher_suite_accepts_known
FNDA:1,_RNvNtNtNtCs3I23rWd8G42_16syslog_generator9transport3tls5testss_33parse_tls_version_rejects_invalid
FNDA:1,_RNvNtNtNtCs3I23rWd8G42_16syslog_generator9transport3tls5testss_34parse_cipher_suite_rejects_unknown
FNDA:1,_RNvNtNtNtCs3I23rWd8G42_16syslog_generator9transport3tls5testss_38build_connector_with_insecure_succeeds
FNDA:1,_RNvNtNtNtCs3I23rWd8G42_16syslog_generator9transport3tls5testss_39build_connector_with_empty_ca_pem_fails
FNDA:1,_RNvNtNtNtCs3I23rWd8G42_16syslog_generator9transport3tls5testss_39tls_params_default_has_no_cipher_suites
FNDA:1,_RNvNtNtNtCs3I23rWd8G42_16syslog_generator9transport3tls5testss_40build_connector_with_mtls_bad_cert_fails
FNDA:1,_RNvNtNtNtCs3I23rWd8G42_16syslog_generator9transport3tls5testss_41v10_4_0_tls_params_clone_preserves_fields
FNDA:1,_RNvNtNtNtCs3I23rWd8G42_16syslog_generator9transport3tls5testss_43build_connector_with_default_roots_succeeds
FNDA:1,_RNvNtNtNtCs3I23rWd8G42_16syslog_generator9transport3tls5testss_43v10_4_0_parse_cipher_suite_all_known_suites
FNDA:1,_RNvNtNtNtCs3I23rWd8G42_16syslog_generator9transport3tls5testss_47v10_4_0_build_connector_tls12_insecure_combined
FNDA:1,_RNvNtNtNtCs3I23rWd8G42_16syslog_generator9transport3tls5testss_50build_connector_with_custom_cipher_suites_succeeds
FNDA:1,_RNvNtNtNtCs3I23rWd8G42_16syslog_generator9transport3tls5testss_55v10_4_0_build_connector_cipher_suites_with_min_protocol
FNDA:1,_RNvNtNtNtCs3I23rWd8G42_16syslog_generator9transport3tls5testss_56v10_4_0_parse_cipher_suite_error_message_lists_supported
FNDA:1,_RNvNtNtNtCs3I23rWd8G42_16syslog_generator9transport3tls5testss_58v10_4_0_build_connector_tls13_cipher_suites_with_tls13_min
FNDA:0,_RNCNCNCNvNtNtCs3I23rWd8G42_16syslog_generator9transport3tls15try_tls_connect0s_00Bb_
FNDA:0,_RNCNCNvNtNtCs3I23rWd8G42_16syslog_generator9transport3tls15try_tls_connect00B9_
FNDA:0,_RNCNCNvNtNtCs3I23rWd8G42_16syslog_generator9transport3tls15try_tls_connect0s_0B9_
FNDA:1,_RNCNvNtNtCs3I23rWd8G42_16syslog_generator9transport3tls11tls_connect0B7_
FNDA:0,_RNCNvNtNtCs3I23rWd8G42_16syslog_generator9transport3tls13run_send_loop0B7_
FNDA:0,_RNCNvNtNtCs3I23rWd8G42_16syslog_generator9transport3tls15try_tls_connect0B7_
FNDA:1,_RNCNvNtNtCs3I23rWd8G42_16syslog_generator9transport3tls17target_sender_tls0B7_
FNDA:0,_RNCNvNtNtCs3I23rWd8G42_16syslog_generator9transport3tls19build_tls_connector0B7_
FNDA:3,_RNCNvNtNtCs3I23rWd8G42_16syslog_generator9transport3tls19build_tls_connectors0_0B7_
FNDA:1,_RNCNvNtNtCs3I23rWd8G42_16syslog_generator9transport3tls19build_tls_connectors1_0B7_
FNDA:0,_RNCNvNtNtCs3I23rWd8G42_16syslog_generator9transport3tls19build_tls_connectors2_0B7_
FNDA:0,_RNCNvNtNtCs3I23rWd8G42_16syslog_generator9transport3tls19build_tls_connectors3_0B7_
FNDA:0,_RNCNvNtNtCs3I23rWd8G42_16syslog_generator9transport3tls19build_tls_connectors_0B7_
FNDA:1,_RNCNvNtNtNtCs3I23rWd8G42_16syslog_generator9transport3tls5testss_41v10_4_0_tls_params_clone_preserves_fields0B9_
FNF:42
FNH:29
DA:47,5
DA:48,5
DA:49,2
DA:50,3
DA:52,5
DA:107,20
DA:108,20
DA:109,90
DA:110,90
DA:111,16
DA:112,74
DA:114,4
DA:115,4
DA:116,4
DA:117,4
DA:118,4
DA:119,20
DA:157,17
DA:159,17
DA:162,17
DA:163,17
DA:167,8
DA:168,8
DA:169,8
DA:170,8
DA:171,1
DA:172,7
DA:173,7
DA:174,7
DA:176,9
DA:177,9
DA:178,9
DA:181,16
DA:182,4
DA:184,12
DA:185,12
DA:186,12
DA:192,16
DA:193,4
DA:194,4
DA:195,4
DA:196,4
DA:197,12
DA:201,16
DA:202,16
DA:203,16
DA:204,16
DA:205,16
DA:206,16
DA:208,16
DA:217,15
DA:218,15
DA:219,15
DA:221,15
DA:222,4
DA:225,4
DA:226,4
DA:227,4
DA:228,4
DA:229,4
DA:230,1
DA:231,3
DA:236,3
DA:237,3
DA:238,3
DA:239,3
DA:240,3
DA:241,1
DA:242,2
DA:243,2
DA:244,2
DA:246,11
DA:249,13
DA:250,17
DA:257,0
DA:258,0
DA:259,0
DA:260,0
DA:261,0
DA:262,0
DA:263,0
DA:264,0
DA:265,0
DA:266,0
DA:268,0
DA:269,0
DA:270,0
DA:271,0
DA:272,0
DA:273,0
DA:274,0
DA:275,0
DA:277,0
DA:278,0
DA:279,0
DA:280,0
DA:281,0
DA:282,0
DA:283,0
DA:284,0
DA:286,0
DA:291,0
DA:292,0
DA:293,0
DA:294,0
DA:295,0
DA:296,0
DA:297,0
DA:298,0
DA:299,0
DA:300,0
DA:301,0
DA:303,0
DA:307,16
DA:308,16
DA:309,16
DA:310,13
DA:311,10
DA:312,10
DA:313,10
DA:314,10
DA:316,16
DA:326,5
DA:327,5
DA:328,5
DA:329,5
DA:330,5
DA:331,5
DA:332,5
DA:333,5
DA:334,5
DA:335,5
DA:336,5
DA:337,5
DA:338,5
DA:339,5
DA:340,0
DA:341,0
DA:342,0
DA:343,0
DA:344,0
DA:347,5
DA:348,5
DA:349,3
DA:354,2
DA:355,2
DA:356,2
DA:361,3
DA:362,3
DA:363,0
DA:364,0
DA:365,0
DA:366,0
DA:367,0
DA:372,3
DA:373,3
DA:374,3
DA:375,3
DA:376,3
DA:377,3
DA:378,3
DA:379,3
DA:380,3
DA:381,3
DA:382,3
DA:383,3
DA:384,3
DA:385,5
DA:391,3
DA:392,3
DA:393,3
DA:394,3
DA:395,3
DA:396,3
DA:397,3
DA:398,3
DA:399,3
DA:400,3
DA:401,3
DA:402,3
DA:405,3
DA:406,6
DA:407,3
DA:408,3
DA:409,3
DA:410,0
DA:411,0
DA:413,0
DA:414,0
DA:415,0
DA:416,0
DA:417,0
DA:418,0
DA:419,0
DA:420,0
DA:421,0
DA:422,0
DA:423,0
DA:424,0
DA:425,0
DA:426,0
DA:427,0
DA:428,0
DA:429,0
DA:430,0
DA:432,0
DA:436,0
DA:437,0
DA:441,3
DA:442,3
DA:443,3
DA:444,3
DA:445,3
DA:446,3
DA:447,3
DA:448,3
DA:449,3
DA:450,3
DA:452,3
DA:460,3
DA:461,3
DA:462,3
DA:468,0
DA:469,0
DA:470,0
DA:471,0
DA:472,0
DA:473,0
DA:474,0
DA:475,0
DA:476,0
DA:477,0
DA:478,0
DA:479,0
DA:480,0
DA:481,0
DA:482,0
DA:483,0
DA:484,0
DA:485,0
DA:486,0
DA:487,0
DA:488,0
DA:489,0
DA:492,0
DA:493,0
DA:494,0
DA:495,0
DA:496,0
DA:498,0
DA:499,0
DA:506,5
DA:507,5
DA:508,5
DA:509,5
DA:510,5
DA:511,5
DA:512,3
DA:513,3
DA:514,5
DA:521,1
DA:522,1
DA:523,1
DA:524,1
DA:525,1
DA:528,1
DA:529,1
DA:530,1
DA:531,1
DA:532,1
DA:533,1
DA:534,1
DA:537,1
DA:538,1
DA:539,1
DA:540,1
DA:542,1
DA:543,1
DA:546,1
DA:547,1
DA:548,1
DA:549,1
DA:550,1
DA:553,1
DA:554,1
DA:555,1
DA:556,1
DA:557,1
DA:558,1
DA:561,1
DA:562,1
DA:563,1
DA:564,1
DA:565,1
DA:566,1
DA:567,1
DA:568,1
DA:571,1
DA:572,1
DA:573,1
DA:574,1
DA:575,1
DA:576,1
DA:577,1
DA:578,1
DA:581,1
DA:582,1
DA:583,1
DA:584,1
DA:585,1
DA:586,1
DA:587,1
DA:588,1
DA:591,1
DA:592,1
DA:593,1
DA:594,1
DA:595,1
DA:596,1
DA:597,1
DA:598,1
DA:599,1
DA:600,1
DA:603,1
DA:604,1
DA:605,1
DA:606,1
DA:607,1
DA:608,1
DA:609,1
DA:610,1
DA:611,1
DA:617,1
DA:620,1
DA:621,1
DA:622,1
DA:626,1
DA:627,1
DA:628,1
DA:629,1
DA:630,1
DA:632,1
DA:633,1
DA:637,1
DA:638,1
DA:639,1
DA:640,1
DA:643,1
DA:644,1
DA:647,1
DA:651,1
DA:652,1
DA:653,1
DA:654,1
DA:655,1
DA:656,1
DA:657,1
DA:658,1
DA:659,1
DA:663,1
DA:664,1
DA:665,1
DA:666,1
DA:667,1
DA:668,1
DA:669,1
DA:670,1
DA:671,1
DA:672,1
DA:673,1
DA:675,1
DA:676,1
DA:680,1
DA:681,1
DA:682,1
DA:683,1
DA:684,1
DA:685,1
DA:686,1
DA:687,1
DA:688,1
DA:689,1
DA:690,1
DA:691,1
DA:695,1
DA:696,1
DA:697,1
DA:698,1
DA:699,1
DA:700,1
DA:701,1
DA:702,1
DA:703,1
DA:704,1
DA:705,1
DA:706,1
DA:707,1
DA:709,1
DA:710,1
DA:711,1
BRF:0
BRH:0
LF:411
LH:302
end_of_record
SF:/private/tmp/pr17a-worktree/src/transport/udp.rs
FN:14,_RNvNtNtCsdYvAweMv4CD_16syslog_generator9transport3udp17target_sender_udp
FN:20,_RNCNvNtNtCsdYvAweMv4CD_16syslog_generator9transport3udp17target_sender_udp0B7_
FN:14,_RNvNtNtCs3I23rWd8G42_16syslog_generator9transport3udp17target_sender_udp
FN:96,_RNvNtNtNtCs3I23rWd8G42_16syslog_generator9transport3udp5testss_31udp_sender_responds_to_shutdown
FN:56,_RNvNtNtNtCs3I23rWd8G42_16syslog_generator9transport3udp5testss_39udp_sender_delivers_message_to_receiver
FN:96,_RNCNvNtNtNtCs3I23rWd8G42_16syslog_generator9transport3udp5testss_31udp_sender_responds_to_shutdown0B9_
FN:56,_RNCNvNtNtNtCs3I23rWd8G42_16syslog_generator9transport3udp5testss_39udp_sender_delivers_message_to_receiver0B9_
FN:20,_RNCNvNtNtCs3I23rWd8G42_16syslog_generator9transport3udp17target_sender_udp0B7_
FNDA:3,_RNvNtNtCsdYvAweMv4CD_16syslog_generator9transport3udp17target_sender_udp
FNDA:3,_RNCNvNtNtCsdYvAweMv4CD_16syslog_generator9transport3udp17target_sender_udp0B7_
FNDA:3,_RNvNtNtCs3I23rWd8G42_16syslog_generator9transport3udp17target_sender_udp
FNDA:1,_RNvNtNtNtCs3I23rWd8G42_16syslog_generator9transport3udp5testss_31udp_sender_responds_to_shutdown
FNDA:1,_RNvNtNtNtCs3I23rWd8G42_16syslog_generator9transport3udp5testss_39udp_sender_delivers_message_to_receiver
FNDA:1,_RNCNvNtNtNtCs3I23rWd8G42_16syslog_generator9transport3udp5testss_31udp_sender_responds_to_shutdown0B9_
FNDA:1,_RNCNvNtNtNtCs3I23rWd8G42_16syslog_generator9transport3udp5testss_39udp_sender_delivers_message_to_receiver0B9_
FNDA:3,_RNCNvNtNtCs3I23rWd8G42_16syslog_generator9transport3udp17target_sender_udp0B7_
FNF:6
FNH:6
DA:14,6
DA:15,6
DA:16,6
DA:17,6
DA:18,6
DA:19,6
DA:20,6
DA:21,6
DA:22,15
DA:23,9
DA:24,9
DA:25,0
DA:27,9
DA:28,9
DA:29,9
DA:30,9
DA:31,9
DA:32,9
DA:33,9
DA:34,9
DA:35,9
DA:36,9
DA:39,6
DA:40,6
DA:56,1
DA:58,1
DA:59,1
DA:61,1
DA:62,1
DA:63,1
DA:64,1
DA:66,1
DA:67,1
DA:68,1
DA:69,1
DA:70,1
DA:71,1
DA:74,3
DA:75,3
DA:78,1
DA:80,1
DA:82,1
DA:83,1
DA:84,1
DA:85,3
DA:86,3
DA:88,1
DA:89,1
DA:90,1
DA:91,1
DA:92,1
DA:96,1
DA:98,1
DA:99,1
DA:100,1
DA:101,1
DA:102,1
DA:103,1
DA:104,1
DA:105,1
DA:106,1
DA:107,1
DA:108,1
DA:111,1
DA:114,1
DA:116,1
DA:118,1
DA:119,1
DA:120,1
DA:121,1
DA:122,1
DA:123,1
BRF:0
BRH:0
LF:77
LH:76
end_of_record
SF:/private/tmp/pr17a-worktree/src/validate.rs
FN:528,_RNCNvNtCsdYvAweMv4CD_16syslog_generator8validate15validate_target0B5_
FN:419,_RNCNvNtCsdYvAweMv4CD_16syslog_generator8validate16validate_profile0B5_
FN:816,_RNvNtCsdYvAweMv4CD_16syslog_generator8validate12validate_cef
FN:983,_RNvNtCsdYvAweMv4CD_16syslog_generator8validate13format_errors
FN:866,_RNvNtCsdYvAweMv4CD_16syslog_generator8validate13validate_leef
FN:649,_RNvNtCsdYvAweMv4CD_16syslog_generator8validate14validate_phase
FN:898,_RNvNtCsdYvAweMv4CD_16syslog_generator8validate15validate_syslog
FN:435,_RNvNtCsdYvAweMv4CD_16syslog_generator8validate15validate_target
FN:392,_RNvNtCsdYvAweMv4CD_16syslog_generator8validate16validate_profile
FN:926,_RNvNtCsdYvAweMv4CD_16syslog_generator8validate19validate_load_shape
FN:741,_RNvNtCsdYvAweMv4CD_16syslog_generator8validate21validate_anomaly_kind
FN:915,_RNvNtCsdYvAweMv4CD_16syslog_generator8validate8push_neg
FN:1092,_RNCNvNtNtCs3I23rWd8G42_16syslog_generator8validate5testss_18rejects_bad_format0B7_
FN:1654,_RNCNvNtNtCs3I23rWd8G42_16syslog_generator8validate5testss_20rejects_zero_padding0B7_
FN:1082,_RNCNvNtNtCs3I23rWd8G42_16syslog_generator8validate5testss_21rejects_bad_transport0B7_
FN:1123,_RNCNvNtNtCs3I23rWd8G42_16syslog_generator8validate5testss_23rejects_unbounded_phase0B7_
FN:1527,_RNCNvNtNtCs3I23rWd8G42_16syslog_generator8validate5testss_24negative_load_shape_rate0B7_
FN:1102,_RNCNvNtNtCs3I23rWd8G42_16syslog_generator8validate5testss_24rejects_bad_distribution0B7_
FN:1679,_RNCNvNtNtCs3I23rWd8G42_16syslog_generator8validate5testss_24rejects_empty_phase_name0B7_
FN:1180,_RNCNvNtNtCs3I23rWd8G42_16syslog_generator8validate5testss_24rejects_zero_connections0B7_
FN:1665,_RNCNvNtNtCs3I23rWd8G42_16syslog_generator8validate5testss_25rejects_bad_shutdown_mode0B7_
FN:1112,_RNCNvNtNtCs3I23rWd8G42_16syslog_generator8validate5testss_25rejects_no_content_source0B7_
FN:1514,_RNCNvNtNtCs3I23rWd8G42_16syslog_generator8validate5testss_29invalid_cef_severity_too_high0B7_
FN:1495,_RNCNvNtNtCs3I23rWd8G42_16syslog_generator8validate5testss_29invalid_tls_cipher_suite_name0B7_
FN:1145,_RNCNvNtNtCs3I23rWd8G42_16syslog_generator8validate5testss_29rejects_bad_severity_facility0B7_
FN:1148,_RNCNvNtNtCs3I23rWd8G42_16syslog_generator8validate5testss_29rejects_bad_severity_facilitys_0B7_
FN:1283,_RNCNvNtNtCs3I23rWd8G42_16syslog_generator8validate5testss_31f17_rejects_burst_zero_interval0B7_
FN:1440,_RNCNvNtNtCs3I23rWd8G42_16syslog_generator8validate5testss_31invalid_file_rotation_size_zero0B7_
FN:1461,_RNCNvNtNtCs3I23rWd8G42_16syslog_generator8validate5testss_31invalid_reconnect_backoff_range0B7_
FN:1639,_RNCNvNtNtCs3I23rWd8G42_16syslog_generator8validate5testss_32rejects_negative_template_weight0B7_
FN:1253,_RNCNvNtNtCs3I23rWd8G42_16syslog_generator8validate5testss_33f17_rejects_burst_zero_multiplier0B7_
FN:1170,_RNCNvNtNtCs3I23rWd8G42_16syslog_generator8validate5testss_33rejects_template_weights_mismatch0B7_
FN:1691,_RNCNvNtNtCs3I23rWd8G42_16syslog_generator8validate5testss_34reconnect_multiplier_zero_rejected0B7_
FN:1298,_RNCNvNtNtCs3I23rWd8G42_16syslog_generator8validate5testss_35f17_rejects_burst_negative_duration0B7_
FN:1326,_RNCNvNtNtCs3I23rWd8G42_16syslog_generator8validate5testss_35f17_rejects_slow_drip_zero_duration0B7_
FN:1450,_RNCNvNtNtCs3I23rWd8G42_16syslog_generator8validate5testss_35invalid_file_rotation_interval_zero0B7_
FN:1159,_RNCNvNtNtCs3I23rWd8G42_16syslog_generator8validate5testss_35severity_not_checked_for_raw_format0B7_
FN:1384,_RNCNvNtNtCs3I23rWd8G42_16syslog_generator8validate5testss_36f17_collects_multiple_anomaly_errors0B7_
FN:1390,_RNCNvNtNtCs3I23rWd8G42_16syslog_generator8validate5testss_36f17_collects_multiple_anomaly_errorss0_0B7_
FN:1387,_RNCNvNtNtCs3I23rWd8G42_16syslog_generator8validate5testss_36f17_collects_multiple_anomaly_errorss_0B7_
FN:1339,_RNCNvNtNtCs3I23rWd8G42_16syslog_generator8validate5testss_36f17_rejects_packet_loss_out_of_range0B7_
FN:1312,_RNCNvNtNtCs3I23rWd8G42_16syslog_generator8validate5testss_36f17_rejects_slow_drip_divisor_le_one0B7_
FN:1268,_RNCNvNtNtCs3I23rWd8G42_16syslog_generator8validate5testss_37f17_rejects_burst_negative_multiplier0B7_
FN:1356,_RNCNvNtNtCs3I23rWd8G42_16syslog_generator8validate5testss_39f17_accepts_packet_loss_boundary_values0B7_
FN:1134,_RNCNvNtNtCs3I23rWd8G42_16syslog_generator8validate5testss_41accepts_unbounded_when_total_messages_set0B7_
FN:1594,_RNCNvNtNtCs3I23rWd8G42_16syslog_generator8validate5testss_41load_shape_constant_rejects_negative_rate0B7_
FN:1627,_RNCNvNtNtCs3I23rWd8G42_16syslog_generator8validate5testss_41tls_client_key_file_not_found_emits_error0B7_
FN:1473,_RNCNvNtNtCs3I23rWd8G42_16syslog_generator8validate5testss_42invalid_cef_config_missing_required_fields0B7_
FN:1547,_RNCNvNtNtCs3I23rWd8G42_16syslog_generator8validate5testss_42leef_field_validation_catches_empty_fields0B7_
FN:1576,_RNCNvNtNtCs3I23rWd8G42_16syslog_generator8validate5testss_42load_shape_sine_validates_period_and_rates0B7_
FN:1580,_RNCNvNtNtCs3I23rWd8G42_16syslog_generator8validate5testss_42load_shape_sine_validates_period_and_ratess_0B7_
FN:1484,_RNCNvNtNtCs3I23rWd8G42_16syslog_generator8validate5testss_43invalid_leef_config_missing_required_fields0B7_
FN:1612,_RNCNvNtNtCs3I23rWd8G42_16syslog_generator8validate5testss_48load_shape_burst_rejects_non_positive_every_secs0B7_
FN:528,_RNCNvNtCs3I23rWd8G42_16syslog_generator8validate15validate_target0B5_
FN:419,_RNCNvNtCs3I23rWd8G42_16syslog_generator8validate16validate_profile0B5_
FN:1024,_RINvNtNtCs3I23rWd8G42_16syslog_generator8validate5tests23assert_validation_errorpEB6_
FN:1035,_RNvNtNtCs3I23rWd8G42_16syslog_generator8validate5tests11valid_phase
FN:1044,_RNvNtNtCs3I23rWd8G42_16syslog_generator8validate5tests12valid_target
FN:1052,_RNvNtNtCs3I23rWd8G42_16syslog_generator8validate5tests13valid_profile
FN:1204,_RNvNtNtCs3I23rWd8G42_16syslog_generator8validate5tests18anomaly_phase_with
FN:1086,_RNvNtNtCs3I23rWd8G42_16syslog_generator8validate5testss_18rejects_bad_format
FN:1068,_RNvNtNtCs3I23rWd8G42_16syslog_generator8validate5testss_20rejects_empty_phases
FN:1648,_RNvNtNtCs3I23rWd8G42_16syslog_generator8validate5testss_20rejects_zero_padding
FN:1063,_RNvNtNtCs3I23rWd8G42_16syslog_generator8validate5testss_21accepts_valid_profile
FN:1076,_RNvNtNtCs3I23rWd8G42_16syslog_generator8validate5testss_21rejects_bad_transport
FN:1116,_RNvNtNtCs3I23rWd8G42_16syslog_generator8validate5testss_23rejects_unbounded_phase
FN:1193,_RNvNtNtCs3I23rWd8G42_16syslog_generator8validate5testss_24collects_multiple_errors
FN:1518,_RNvNtNtCs3I23rWd8G42_16syslog_generator8validate5testss_24negative_load_shape_rate
FN:1096,_RNvNtNtCs3I23rWd8G42_16syslog_generator8validate5testss_24rejects_bad_distribution
FN:1673,_RNvNtNtCs3I23rWd8G42_16syslog_generator8validate5testss_24rejects_empty_phase_name
FN:1174,_RNvNtNtCs3I23rWd8G42_16syslog_generator8validate5testss_24rejects_zero_connections
FN:1660,_RNvNtNtCs3I23rWd8G42_16syslog_generator8validate5testss_25rejects_bad_shutdown_mode
FN:1106,_RNvNtNtCs3I23rWd8G42_16syslog_generator8validate5testss_25rejects_no_content_source
FN:1184,_RNvNtNtCs3I23rWd8G42_16syslog_generator8validate5testss_25rejects_weighted_all_zero
FN:1223,_RNvNtNtCs3I23rWd8G42_16syslog_generator8validate5testss_27f17_accepts_valid_slow_drip
FN:1234,_RNvNtNtCs3I23rWd8G42_16syslog_generator8validate5testss_29f17_accepts_valid_packet_loss
FN:1499,_RNvNtNtCs3I23rWd8G42_16syslog_generator8validate5testss_29invalid_cef_severity_too_high
FN:1488,_RNvNtNtCs3I23rWd8G42_16syslog_generator8validate5testss_29invalid_tls_cipher_suite_name
FN:1138,_RNvNtNtCs3I23rWd8G42_16syslog_generator8validate5testss_29rejects_bad_severity_facility
FN:1272,_RNvNtNtCs3I23rWd8G42_16syslog_generator8validate5testss_31f17_rejects_burst_zero_interval
FN:1434,_RNvNtNtCs3I23rWd8G42_16syslog_generator8validate5testss_31invalid_file_rotation_size_zero
FN:1454,_RNvNtNtCs3I23rWd8G42_16syslog_generator8validate5testss_31invalid_reconnect_backoff_range
FN:1633,_RNvNtNtCs3I23rWd8G42_16syslog_generator8validate5testss_32rejects_negative_template_weight
FN:1211,_RNvNtNtCs3I23rWd8G42_16syslog_generator8validate5testss_33f17_accepts_valid_burst_injection
FN:1242,_RNvNtNtCs3I23rWd8G42_16syslog_generator8validate5testss_33f17_rejects_burst_zero_multiplier
FN:1163,_RNvNtNtCs3I23rWd8G42_16syslog_generator8validate5testss_33rejects_template_weights_mismatch
FN:1686,_RNvNtNtCs3I23rWd8G42_16syslog_generator8validate5testss_34reconnect_multiplier_zero_rejected
FN:1287,_RNvNtNtCs3I23rWd8G42_16syslog_generator8validate5testss_35f17_rejects_burst_negative_duration
FN:1316,_RNvNtNtCs3I23rWd8G42_16syslog_generator8validate5testss_35f17_rejects_slow_drip_zero_duration
FN:1444,_RNvNtNtCs3I23rWd8G42_16syslog_generator8validate5testss_35invalid_file_rotation_interval_zero
FN:1152,_RNvNtNtCs3I23rWd8G42_16syslog_generator8validate5testss_35severity_not_checked_for_raw_format
FN:1363,_RNvNtNtCs3I23rWd8G42_16syslog_generator8validate5testss_36f17_collects_multiple_anomaly_errors
FN:1330,_RNvNtNtCs3I23rWd8G42_16syslog_generator8validate5testss_36f17_rejects_packet_loss_out_of_range
FN:1302,_RNvNtNtCs3I23rWd8G42_16syslog_generator8validate5testss_36f17_rejects_slow_drip_divisor_le_one
FN:1257,_RNvNtNtCs3I23rWd8G42_16syslog_generator8validate5testss_37f17_rejects_burst_negative_multiplier
FN:1346,_RNvNtNtCs3I23rWd8G42_16syslog_generator8validate5testss_39f17_accepts_packet_loss_boundary_values
FN:1127,_RNvNtNtCs3I23rWd8G42_16syslog_generator8validate5testss_41accepts_unbounded_when_total_messages_set
FN:1589,_RNvNtNtCs3I23rWd8G42_16syslog_generator8validate5testss_41load_shape_constant_rejects_negative_rate
FN:1620,_RNvNtNtCs3I23rWd8G42_16syslog_generator8validate5testss_41tls_client_key_file_not_found_emits_error
FN:1465,_RNvNtNtCs3I23rWd8G42_16syslog_generator8validate5testss_42invalid_cef_config_missing_required_fields
FN:1534,_RNvNtNtCs3I23rWd8G42_16syslog_generator8validate5testss_42leef_field_validation_catches_empty_fields
FN:1567,_RNvNtNtCs3I23rWd8G42_16syslog_generator8validate5testss_42load_shape_sine_validates_period_and_rates
FN:1477,_RNvNtNtCs3I23rWd8G42_16syslog_generator8validate5testss_43invalid_leef_config_missing_required_fields
FN:1602,_RNvNtNtCs3I23rWd8G42_16syslog_generator8validate5testss_48load_shape_burst_rejects_non_positive_every_secs
FN:816,_RNvNtCs3I23rWd8G42_16syslog_generator8validate12validate_cef
FN:983,_RNvNtCs3I23rWd8G42_16syslog_generator8validate13format_errors
FN:866,_RNvNtCs3I23rWd8G42_16syslog_generator8validate13validate_leef
FN:649,_RNvNtCs3I23rWd8G42_16syslog_generator8validate14validate_phase
FN:898,_RNvNtCs3I23rWd8G42_16syslog_generator8validate15validate_syslog
FN:435,_RNvNtCs3I23rWd8G42_16syslog_generator8validate15validate_target
FN:392,_RNvNtCs3I23rWd8G42_16syslog_generator8validate16validate_profile
FN:926,_RNvNtCs3I23rWd8G42_16syslog_generator8validate19validate_load_shape
FN:741,_RNvNtCs3I23rWd8G42_16syslog_generator8validate21validate_anomaly_kind
FN:915,_RNvNtCs3I23rWd8G42_16syslog_generator8validate8push_neg
FNDA:0,_RNCNvNtCsdYvAweMv4CD_16syslog_generator8validate15validate_target0B5_
FNDA:1,_RNCNvNtCsdYvAweMv4CD_16syslog_generator8validate16validate_profile0B5_
FNDA:4,_RNvNtCsdYvAweMv4CD_16syslog_generator8validate12validate_cef
FNDA:2,_RNvNtCsdYvAweMv4CD_16syslog_generator8validate13format_errors
FNDA:1,_RNvNtCsdYvAweMv4CD_16syslog_generator8validate13validate_leef
FNDA:49,_RNvNtCsdYvAweMv4CD_16syslog_generator8validate14validate_phase
FNDA:26,_RNvNtCsdYvAweMv4CD_16syslog_generator8validate15validate_syslog
FNDA:61,_RNvNtCsdYvAweMv4CD_16syslog_generator8validate15validate_target
FNDA:50,_RNvNtCsdYvAweMv4CD_16syslog_generator8validate16validate_profile
FNDA:2,_RNvNtCsdYvAweMv4CD_16syslog_generator8validate19validate_load_shape
FNDA:6,_RNvNtCsdYvAweMv4CD_16syslog_generator8validate21validate_anomaly_kind
FNDA:5,_RNvNtCsdYvAweMv4CD_16syslog_generator8validate8push_neg
FNDA:1,_RNCNvNtNtCs3I23rWd8G42_16syslog_generator8validate5testss_18rejects_bad_format0B7_
FNDA:1,_RNCNvNtNtCs3I23rWd8G42_16syslog_generator8validate5testss_20rejects_zero_padding0B7_
FNDA:1,_RNCNvNtNtCs3I23rWd8G42_16syslog_generator8validate5testss_21rejects_bad_transport0B7_
FNDA:1,_RNCNvNtNtCs3I23rWd8G42_16syslog_generator8validate5testss_23rejects_unbounded_phase0B7_
FNDA:1,_RNCNvNtNtCs3I23rWd8G42_16syslog_generator8validate5testss_24negative_load_shape_rate0B7_
FNDA:1,_RNCNvNtNtCs3I23rWd8G42_16syslog_generator8validate5testss_24rejects_bad_distribution0B7_
FNDA:1,_RNCNvNtNtCs3I23rWd8G42_16syslog_generator8validate5testss_24rejects_empty_phase_name0B7_
FNDA:1,_RNCNvNtNtCs3I23rWd8G42_16syslog_generator8validate5testss_24rejects_zero_connections0B7_
FNDA:1,_RNCNvNtNtCs3I23rWd8G42_16syslog_generator8validate5testss_25rejects_bad_shutdown_mode0B7_
FNDA:1,_RNCNvNtNtCs3I23rWd8G42_16syslog_generator8validate5testss_25rejects_no_content_source0B7_
FNDA:1,_RNCNvNtNtCs3I23rWd8G42_16syslog_generator8validate5testss_29invalid_cef_severity_too_high0B7_
FNDA:1,_RNCNvNtNtCs3I23rWd8G42_16syslog_generator8validate5testss_29invalid_tls_cipher_suite_name0B7_
FNDA:2,_RNCNvNtNtCs3I23rWd8G42_16syslog_generator8validate5testss_29rejects_bad_severity_facility0B7_
FNDA:1,_RNCNvNtNtCs3I23rWd8G42_16syslog_generator8validate5testss_29rejects_bad_severity_facilitys_0B7_
FNDA:1,_RNCNvNtNtCs3I23rWd8G42_16syslog_generator8validate5testss_31f17_rejects_burst_zero_interval0B7_
FNDA:1,_RNCNvNtNtCs3I23rWd8G42_16syslog_generator8validate5testss_31invalid_file_rotation_size_zero0B7_
FNDA:1,_RNCNvNtNtCs3I23rWd8G42_16syslog_generator8validate5testss_31invalid_reconnect_backoff_range0B7_
FNDA:1,_RNCNvNtNtCs3I23rWd8G42_16syslog_generator8validate5testss_32rejects_negative_template_weight0B7_
FNDA:1,_RNCNvNtNtCs3I23rWd8G42_16syslog_generator8validate5testss_33f17_rejects_burst_zero_multiplier0B7_
FNDA:1,_RNCNvNtNtCs3I23rWd8G42_16syslog_generator8validate5testss_33rejects_template_weights_mismatch0B7_
FNDA:1,_RNCNvNtNtCs3I23rWd8G42_16syslog_generator8validate5testss_34reconnect_multiplier_zero_rejected0B7_
FNDA:1,_RNCNvNtNtCs3I23rWd8G42_16syslog_generator8validate5testss_35f17_rejects_burst_negative_duration0B7_
FNDA:1,_RNCNvNtNtCs3I23rWd8G42_16syslog_generator8validate5testss_35f17_rejects_slow_drip_zero_duration0B7_
FNDA:1,_RNCNvNtNtCs3I23rWd8G42_16syslog_generator8validate5testss_35invalid_file_rotation_interval_zero0B7_
FNDA:0,_RNCNvNtNtCs3I23rWd8G42_16syslog_generator8validate5testss_35severity_not_checked_for_raw_format0B7_
FNDA:1,_RNCNvNtNtCs3I23rWd8G42_16syslog_generator8validate5testss_36f17_collects_multiple_anomaly_errors0B7_
FNDA:3,_RNCNvNtNtCs3I23rWd8G42_16syslog_generator8validate5testss_36f17_collects_multiple_anomaly_errorss0_0B7_
FNDA:2,_RNCNvNtNtCs3I23rWd8G42_16syslog_generator8validate5testss_36f17_collects_multiple_anomaly_errorss_0B7_
FNDA:3,_RNCNvNtNtCs3I23rWd8G42_16syslog_generator8validate5testss_36f17_rejects_packet_loss_out_of_range0B7_
FNDA:1,_RNCNvNtNtCs3I23rWd8G42_16syslog_generator8validate5testss_36f17_rejects_slow_drip_divisor_le_one0B7_
FNDA:1,_RNCNvNtNtCs3I23rWd8G42_16syslog_generator8validate5testss_37f17_rejects_burst_negative_multiplier0B7_
FNDA:0,_RNCNvNtNtCs3I23rWd8G42_16syslog_generator8validate5testss_39f17_accepts_packet_loss_boundary_values0B7_
FNDA:0,_RNCNvNtNtCs3I23rWd8G42_16syslog_generator8validate5testss_41accepts_unbounded_when_total_messages_set0B7_
FNDA:1,_RNCNvNtNtCs3I23rWd8G42_16syslog_generator8validate5testss_41load_shape_constant_rejects_negative_rate0B7_
FNDA:1,_RNCNvNtNtCs3I23rWd8G42_16syslog_generator8validate5testss_41tls_client_key_file_not_found_emits_error0B7_
FNDA:1,_RNCNvNtNtCs3I23rWd8G42_16syslog_generator8validate5testss_42invalid_cef_config_missing_required_fields0B7_
FNDA:2,_RNCNvNtNtCs3I23rWd8G42_16syslog_generator8validate5testss_42leef_field_validation_catches_empty_fields0B7_
FNDA:1,_RNCNvNtNtCs3I23rWd8G42_16syslog_generator8validate5testss_42load_shape_sine_validates_period_and_rates0B7_
FNDA:1,_RNCNvNtNtCs3I23rWd8G42_16syslog_generator8validate5testss_42load_shape_sine_validates_period_and_ratess_0B7_
FNDA:1,_RNCNvNtNtCs3I23rWd8G42_16syslog_generator8validate5testss_43invalid_leef_config_missing_required_fields0B7_
FNDA:1,_RNCNvNtNtCs3I23rWd8G42_16syslog_generator8validate5testss_48load_shape_burst_rejects_non_positive_every_secs0B7_
FNDA:0,_RNCNvNtCs3I23rWd8G42_16syslog_generator8validate15validate_target0B5_
FNDA:1,_RNCNvNtCs3I23rWd8G42_16syslog_generator8validate16validate_profile0B5_
FNDA:0,_RINvNtNtCs3I23rWd8G42_16syslog_generator8validate5tests23assert_validation_errorpEB6_
FNDA:62,_RNvNtNtCs3I23rWd8G42_16syslog_generator8validate5tests11valid_phase
FNDA:47,_RNvNtNtCs3I23rWd8G42_16syslog_generator8validate5tests12valid_target
FNDA:47,_RNvNtNtCs3I23rWd8G42_16syslog_generator8validate5tests13valid_profile
FNDA:14,_RNvNtNtCs3I23rWd8G42_16syslog_generator8validate5tests18anomaly_phase_with
FNDA:1,_RNvNtNtCs3I23rWd8G42_16syslog_generator8validate5testss_18rejects_bad_format
FNDA:1,_RNvNtNtCs3I23rWd8G42_16syslog_generator8validate5testss_20rejects_empty_phases
FNDA:1,_RNvNtNtCs3I23rWd8G42_16syslog_generator8validate5testss_20rejects_zero_padding
FNDA:1,_RNvNtNtCs3I23rWd8G42_16syslog_generator8validate5testss_21accepts_valid_profile
FNDA:1,_RNvNtNtCs3I23rWd8G42_16syslog_generator8validate5testss_21rejects_bad_transport
FNDA:1,_RNvNtNtCs3I23rWd8G42_16syslog_generator8validate5testss_23rejects_unbounded_phase
FNDA:1,_RNvNtNtCs3I23rWd8G42_16syslog_generator8validate5testss_24collects_multiple_errors
FNDA:1,_RNvNtNtCs3I23rWd8G42_16syslog_generator8validate5testss_24negative_load_shape_rate
FNDA:1,_RNvNtNtCs3I23rWd8G42_16syslog_generator8validate5testss_24rejects_bad_distribution
FNDA:1,_RNvNtNtCs3I23rWd8G42_16syslog_generator8validate5testss_24rejects_empty_phase_name
FNDA:1,_RNvNtNtCs3I23rWd8G42_16syslog_generator8validate5testss_24rejects_zero_connections
FNDA:1,_RNvNtNtCs3I23rWd8G42_16syslog_generator8validate5testss_25rejects_bad_shutdown_mode
FNDA:1,_RNvNtNtCs3I23rWd8G42_16syslog_generator8validate5testss_25rejects_no_content_source
FNDA:1,_RNvNtNtCs3I23rWd8G42_16syslog_generator8validate5testss_25rejects_weighted_all_zero
FNDA:1,_RNvNtNtCs3I23rWd8G42_16syslog_generator8validate5testss_27f17_accepts_valid_slow_drip
FNDA:1,_RNvNtNtCs3I23rWd8G42_16syslog_generator8validate5testss_29f17_accepts_valid_packet_loss
FNDA:1,_RNvNtNtCs3I23rWd8G42_16syslog_generator8validate5testss_29invalid_cef_severity_too_high
FNDA:1,_RNvNtNtCs3I23rWd8G42_16syslog_generator8validate5testss_29invalid_tls_cipher_suite_name
FNDA:1,_RNvNtNtCs3I23rWd8G42_16syslog_generator8validate5testss_29rejects_bad_severity_facility
FNDA:1,_RNvNtNtCs3I23rWd8G42_16syslog_generator8validate5testss_31f17_rejects_burst_zero_interval
FNDA:1,_RNvNtNtCs3I23rWd8G42_16syslog_generator8validate5testss_31invalid_file_rotation_size_zero
FNDA:1,_RNvNtNtCs3I23rWd8G42_16syslog_generator8validate5testss_31invalid_reconnect_backoff_range
FNDA:1,_RNvNtNtCs3I23rWd8G42_16syslog_generator8validate5testss_32rejects_negative_template_weight
FNDA:1,_RNvNtNtCs3I23rWd8G42_16syslog_generator8validate5testss_33f17_accepts_valid_burst_injection
FNDA:1,_RNvNtNtCs3I23rWd8G42_16syslog_generator8validate5testss_33f17_rejects_burst_zero_multiplier
FNDA:1,_RNvNtNtCs3I23rWd8G42_16syslog_generator8validate5testss_33rejects_template_weights_mismatch
FNDA:1,_RNvNtNtCs3I23rWd8G42_16syslog_generator8validate5testss_34reconnect_multiplier_zero_rejected
FNDA:1,_RNvNtNtCs3I23rWd8G42_16syslog_generator8validate5testss_35f17_rejects_burst_negative_duration
FNDA:1,_RNvNtNtCs3I23rWd8G42_16syslog_generator8validate5testss_35f17_rejects_slow_drip_zero_duration
FNDA:1,_RNvNtNtCs3I23rWd8G42_16syslog_generator8validate5testss_35invalid_file_rotation_interval_zero
FNDA:1,_RNvNtNtCs3I23rWd8G42_16syslog_generator8validate5testss_35severity_not_checked_for_raw_format
FNDA:1,_RNvNtNtCs3I23rWd8G42_16syslog_generator8validate5testss_36f17_collects_multiple_anomaly_errors
FNDA:1,_RNvNtNtCs3I23rWd8G42_16syslog_generator8validate5testss_36f17_rejects_packet_loss_out_of_range
FNDA:1,_RNvNtNtCs3I23rWd8G42_16syslog_generator8validate5testss_36f17_rejects_slow_drip_divisor_le_one
FNDA:1,_RNvNtNtCs3I23rWd8G42_16syslog_generator8validate5testss_37f17_rejects_burst_negative_multiplier
FNDA:1,_RNvNtNtCs3I23rWd8G42_16syslog_generator8validate5testss_39f17_accepts_packet_loss_boundary_values
FNDA:1,_RNvNtNtCs3I23rWd8G42_16syslog_generator8validate5testss_41accepts_unbounded_when_total_messages_set
FNDA:1,_RNvNtNtCs3I23rWd8G42_16syslog_generator8validate5testss_41load_shape_constant_rejects_negative_rate
FNDA:1,_RNvNtNtCs3I23rWd8G42_16syslog_generator8validate5testss_41tls_client_key_file_not_found_emits_error
FNDA:1,_RNvNtNtCs3I23rWd8G42_16syslog_generator8validate5testss_42invalid_cef_config_missing_required_fields
FNDA:1,_RNvNtNtCs3I23rWd8G42_16syslog_generator8validate5testss_42leef_field_validation_catches_empty_fields
FNDA:1,_RNvNtNtCs3I23rWd8G42_16syslog_generator8validate5testss_42load_shape_sine_validates_period_and_rates
FNDA:1,_RNvNtNtCs3I23rWd8G42_16syslog_generator8validate5testss_43invalid_leef_config_missing_required_fields
FNDA:1,_RNvNtNtCs3I23rWd8G42_16syslog_generator8validate5testss_48load_shape_burst_rejects_non_positive_every_secs
FNDA:2,_RNvNtCs3I23rWd8G42_16syslog_generator8validate12validate_cef
FNDA:0,_RNvNtCs3I23rWd8G42_16syslog_generator8validate13format_errors
FNDA:2,_RNvNtCs3I23rWd8G42_16syslog_generator8validate13validate_leef
FNDA:45,_RNvNtCs3I23rWd8G42_16syslog_generator8validate14validate_phase
FNDA:39,_RNvNtCs3I23rWd8G42_16syslog_generator8validate15validate_syslog
FNDA:47,_RNvNtCs3I23rWd8G42_16syslog_generator8validate15validate_target
FNDA:47,_RNvNtCs3I23rWd8G42_16syslog_generator8validate16validate_profile
FNDA:4,_RNvNtCs3I23rWd8G42_16syslog_generator8validate19validate_load_shape
FNDA:16,_RNvNtCs3I23rWd8G42_16syslog_generator8validate21validate_anomaly_kind
FNDA:8,_RNvNtCs3I23rWd8G42_16syslog_generator8validate8push_neg
FNF:102
FNH:97
DA:392,97
DA:393,97
DA:396,97
DA:397,4
DA:398,4
DA:399,4
DA:400,4
DA:401,93
DA:404,97
DA:405,1
DA:406,1
DA:407,1
DA:408,1
DA:409,96
DA:412,108
DA:413,108
DA:414,108
DA:417,97
DA:418,2
DA:419,2
DA:420,1
DA:421,1
DA:422,96
DA:425,97
DA:426,4
DA:427,93
DA:428,97
DA:429,94
DA:430,94
DA:432,97
DA:433,97
DA:435,108
DA:436,108
DA:437,1
DA:438,107
DA:439,108
DA:440,5
DA:441,5
DA:442,5
DA:443,5
DA:444,5
DA:445,5
DA:446,103
DA:449,108
DA:450,1
DA:451,1
DA:452,1
DA:453,1
DA:454,1
DA:455,1
DA:456,107
DA:457,108
DA:458,2
DA:459,2
DA:460,2
DA:461,2
DA:462,2
DA:463,106
DA:466,108
DA:467,5
DA:468,1
DA:469,1
DA:470,1
DA:471,1
DA:472,1
DA:473,4
DA:474,103
DA:478,108
DA:479,1
DA:480,1
DA:481,1
DA:482,1
DA:483,1
DA:484,1
DA:485,1
DA:486,107
DA:488,108
DA:489,1
DA:490,1
DA:491,1
DA:492,1
DA:493,1
DA:494,1
DA:495,1
DA:496,107
DA:500,108
DA:501,1
DA:502,1
DA:503,1
DA:504,1
DA:505,1
DA:506,1
DA:507,1
DA:508,107
DA:512,108
DA:513,6
DA:514,6
DA:515,2
DA:516,2
DA:517,2
DA:518,2
DA:519,2
DA:520,2
DA:521,4
DA:523,105
DA:528,108
DA:529,0
DA:530,0
DA:531,0
DA:532,0
DA:533,108
DA:536,108
DA:537,108
DA:538,108
DA:539,5
DA:540,4
DA:541,2
DA:542,2
DA:543,2
DA:544,2
DA:545,2
DA:546,2
DA:547,2
DA:548,1
DA:549,5
DA:550,2
DA:551,1
DA:552,1
DA:553,1
DA:554,1
DA:555,1
DA:556,1
DA:557,1
DA:558,3
DA:559,5
DA:560,2
DA:561,1
DA:562,1
DA:563,1
DA:564,1
DA:565,1
DA:566,3
DA:567,103
DA:570,108
DA:571,4
DA:572,1
DA:573,1
DA:574,1
DA:575,1
DA:576,3
DA:577,104
DA:578,108
DA:579,3
DA:580,2
DA:581,2
DA:582,2
DA:583,2
DA:584,2
DA:585,2
DA:586,105
DA:587,108
DA:589,2
DA:590,1
DA:591,1
DA:592,1
DA:593,1
DA:594,1
DA:595,1
DA:596,1
DA:597,106
DA:605,108
DA:606,0
DA:607,0
DA:608,0
DA:609,0
DA:610,108
DA:647,108
DA:649,94
DA:650,94
DA:652,94
DA:653,1
DA:654,1
DA:655,1
DA:656,1
DA:657,93
DA:660,94
DA:661,94
DA:662,1
DA:663,1
DA:664,1
DA:665,1
DA:666,1
DA:667,1
DA:668,93
DA:671,94
DA:672,1
DA:673,1
DA:674,1
DA:675,1
DA:676,93
DA:679,94
DA:680,1
DA:681,1
DA:682,1
DA:683,1
DA:684,93
DA:687,94
DA:688,2
DA:689,1
DA:690,1
DA:691,1
DA:692,1
DA:693,1
DA:694,1
DA:695,1
DA:696,3
DA:697,3
DA:698,1
DA:699,1
DA:700,1
DA:701,1
DA:702,1
DA:703,2
DA:705,92
DA:708,94
DA:709,1
DA:710,1
DA:711,1
DA:712,1
DA:713,1
DA:714,93
DA:717,94
DA:718,65
DA:719,65
DA:722,94
DA:723,94
DA:724,88
DA:725,85
DA:729,94
DA:730,6
DA:731,88
DA:734,94
DA:735,22
DA:736,22
DA:737,22
DA:738,74
DA:739,94
DA:741,22
DA:742,22
DA:743,22
DA:744,22
DA:745,22
DA:746,22
DA:747,22
DA:748,22
DA:750,9
DA:751,9
DA:752,9
DA:754,9
DA:755,4
DA:756,4
DA:757,4
DA:758,4
DA:759,4
DA:760,4
DA:761,5
DA:762,9
DA:763,2
DA:764,2
DA:765,2
DA:766,2
DA:767,2
DA:768,2
DA:769,7
DA:770,9
DA:771,1
DA:772,1
DA:773,1
DA:774,1
DA:775,1
DA:776,1
DA:777,8
DA:780,4
DA:781,4
DA:785,4
DA:786,1
DA:787,1
DA:788,1
DA:789,1
DA:790,1
DA:791,1
DA:792,3
DA:793,4
DA:794,1
DA:795,1
DA:796,1
DA:797,1
DA:798,1
DA:799,1
DA:800,3
DA:802,9
DA:804,9
DA:805,4
DA:806,4
DA:807,4
DA:808,4
DA:809,4
DA:810,4
DA:811,5
DA:814,22
DA:816,6
DA:817,6
DA:818,6
DA:819,6
DA:820,6
DA:821,6
DA:822,6
DA:823,3
DA:824,3
DA:825,3
DA:826,3
DA:827,3
DA:829,15
DA:830,3
DA:831,3
DA:832,3
DA:833,3
DA:834,3
DA:835,3
DA:839,15
DA:840,15
DA:841,12
DA:842,9
DA:843,6
DA:844,3
DA:845,0
DA:847,15
DA:848,1
DA:849,1
DA:850,1
DA:851,1
DA:852,1
DA:853,14
DA:855,3
DA:856,2
DA:857,2
DA:858,2
DA:859,2
DA:860,2
DA:861,2
DA:862,2
DA:863,1
DA:864,6
DA:866,3
DA:867,3
DA:868,3
DA:869,3
DA:870,3
DA:871,3
DA:872,3
DA:873,2
DA:874,2
DA:875,2
DA:876,2
DA:877,2
DA:879,4
DA:881,4
DA:882,4
DA:883,3
DA:884,2
DA:885,1
DA:886,0
DA:888,4
DA:889,2
DA:890,2
DA:891,2
DA:892,2
DA:893,2
DA:894,2
DA:896,3
DA:898,65
DA:899,65
DA:900,1
DA:901,1
DA:902,1
DA:903,1
DA:904,1
DA:905,64
DA:906,65
DA:907,1
DA:908,1
DA:909,1
DA:910,1
DA:911,1
DA:912,64
DA:913,65
DA:915,13
DA:916,13
DA:917,3
DA:918,3
DA:919,3
DA:920,3
DA:921,3
DA:922,3
DA:923,10
DA:924,13
DA:926,6
DA:927,6
DA:928,6
DA:929,6
DA:930,6
DA:931,6
DA:932,6
DA:933,1
DA:934,1
DA:935,1
DA:936,1
DA:939,2
DA:940,2
DA:941,2
DA:942,2
DA:943,2
DA:944,2
DA:946,1
DA:947,1
DA:948,1
DA:950,1
DA:951,1
DA:952,1
DA:953,1
DA:954,1
DA:955,1
DA:956,1
DA:957,1
DA:958,1
DA:959,1
DA:962,2
DA:963,2
DA:964,2
DA:965,2
DA:967,2
DA:968,2
DA:969,2
DA:970,1
DA:971,1
DA:972,1
DA:973,1
DA:974,1
DA:975,1
DA:976,1
DA:977,2
DA:980,6
DA:983,2
DA:984,2
DA:985,4
DA:986,4
DA:987,4
DA:988,2
DA:989,2
DA:1024,0
DA:1025,0
DA:1026,0
DA:1028,0
DA:1029,0
DA:1033,0
DA:1035,62
DA:1036,62
DA:1037,62
DA:1038,62
DA:1039,62
DA:1040,62
DA:1041,62
DA:1042,62
DA:1044,47
DA:1045,47
DA:1046,47
DA:1047,47
DA:1048,47
DA:1049,47
DA:1050,47
DA:1052,47
DA:1053,47
DA:1054,47
DA:1055,47
DA:1056,47
DA:1057,47
DA:1058,47
DA:1059,47
DA:1060,47
DA:1063,1
DA:1064,1
DA:1065,1
DA:1068,1
DA:1069,1
DA:1070,1
DA:1071,1
DA:1072,1
DA:1073,1
DA:1076,1
DA:1077,1
DA:1078,1
DA:1079,1
DA:1080,1
DA:1081,1
DA:1082,1
DA:1083,1
DA:1086,1
DA:1087,1
DA:1088,1
DA:1089,1
DA:1090,1
DA:1091,1
DA:1092,1
DA:1093,1
DA:1096,1
DA:1097,1
DA:1098,1
DA:1099,1
DA:1100,1
DA:1101,1
DA:1102,1
DA:1103,1
DA:1106,1
DA:1107,1
DA:1108,1
DA:1109,1
DA:1110,1
DA:1111,1
DA:1112,1
DA:1113,1
DA:1116,1
DA:1117,1
DA:1118,1
DA:1119,1
DA:1120,1
DA:1121,1
DA:1122,1
DA:1123,1
DA:1124,1
DA:1127,1
DA:1128,1
DA:1129,1
DA:1130,1
DA:1131,1
DA:1132,1
DA:1133,1
DA:1134,1
DA:1135,1
DA:1138,1
DA:1139,1
DA:1140,1
DA:1141,1
DA:1142,1
DA:1143,1
DA:1144,1
DA:1145,2
DA:1146,1
DA:1147,1
DA:1148,1
DA:1149,1
DA:1152,1
DA:1153,1
DA:1154,1
DA:1155,1
DA:1156,1
DA:1157,1
DA:1158,1
DA:1159,1
DA:1160,1
DA:1163,1
DA:1164,1
DA:1165,1
DA:1166,1
DA:1167,1
DA:1168,1
DA:1169,1
DA:1170,1
DA:1171,1
DA:1174,1
DA:1175,1
DA:1176,1
DA:1177,1
DA:1178,1
DA:1179,1
DA:1180,1
DA:1181,1
DA:1184,1
DA:1185,1
DA:1186,1
DA:1187,1
DA:1188,1
DA:1189,1
DA:1190,1
DA:1193,1
DA:1194,1
DA:1195,1
DA:1196,1
DA:1197,1
DA:1198,1
DA:1199,1
DA:1200,1
DA:1204,14
DA:1205,14
DA:1206,14
DA:1207,14
DA:1208,14
DA:1211,1
DA:1212,1
DA:1213,1
DA:1214,1
DA:1215,1
DA:1216,1
DA:1217,1
DA:1218,1
DA:1219,1
DA:1220,1
DA:1223,1
DA:1224,1
DA:1225,1
DA:1226,1
DA:1227,1
DA:1228,1
DA:1229,1
DA:1230,1
DA:1231,1
DA:1234,1
DA:1235,1
DA:1236,1
DA:1237,1
DA:1238,1
DA:1239,1
DA:1242,1
DA:1243,1
DA:1244,1
DA:1245,1
DA:1246,1
DA:1247,1
DA:1248,1
DA:1249,1
DA:1250,1
DA:1251,1
DA:1252,1
DA:1253,1
DA:1254,1
DA:1257,1
DA:1258,1
DA:1259,1
DA:1260,1
DA:1261,1
DA:1262,1
DA:1263,1
DA:1264,1
DA:1265,1
DA:1266,1
DA:1267,1
DA:1268,1
DA:1269,1
DA:1272,1
DA:1273,1
DA:1274,1
DA:1275,1
DA:1276,1
DA:1277,1
DA:1278,1
DA:1279,1
DA:1280,1
DA:1281,1
DA:1282,1
DA:1283,1
DA:1284,1
DA:1287,1
DA:1288,1
DA:1289,1
DA:1290,1
DA:1291,1
DA:1292,1
DA:1293,1
DA:1294,1
DA:1295,1
DA:1296,1
DA:1297,1
DA:1298,1
DA:1299,1
DA:1302,1
DA:1303,1
DA:1304,1
DA:1305,1
DA:1306,1
DA:1307,1
DA:1308,1
DA:1309,1
DA:1310,1
DA:1311,1
DA:1312,1
DA:1313,1
DA:1316,1
DA:1317,1
DA:1318,1
DA:1319,1
DA:1320,1
DA:1321,1
DA:1322,1
DA:1323,1
DA:1324,1
DA:1325,1
DA:1326,1
DA:1327,1
DA:1330,1
DA:1331,3
DA:1332,3
DA:1333,3
DA:1334,3
DA:1335,3
DA:1336,3
DA:1337,3
DA:1338,3
DA:1339,3
DA:1343,1
DA:1346,1
DA:1347,2
DA:1348,2
DA:1349,2
DA:1350,2
DA:1351,2
DA:1352,2
DA:1353,2
DA:1354,2
DA:1355,2
DA:1356,2
DA:1360,1
DA:1363,1
DA:1364,1
DA:1365,1
DA:1366,1
DA:1367,1
DA:1368,1
DA:1369,1
DA:1370,1
DA:1371,1
DA:1372,1
DA:1373,1
DA:1374,1
DA:1375,1
DA:1376,1
DA:1377,1
DA:1378,1
DA:1379,1
DA:1380,1
DA:1381,1
DA:1382,1
DA:1383,1
DA:1384,1
DA:1385,1
DA:1386,1
DA:1387,2
DA:1388,1
DA:1389,1
DA:1390,3
DA:1391,1
DA:1434,1
DA:1435,1
DA:1436,1
DA:1437,1
DA:1438,1
DA:1439,1
DA:1440,1
DA:1441,1
DA:1444,1
DA:1445,1
DA:1446,1
DA:1447,1
DA:1448,1
DA:1449,1
DA:1450,1
DA:1451,1
DA:1454,1
DA:1455,1
DA:1456,1
DA:1457,1
DA:1458,1
DA:1459,1
DA:1460,1
DA:1461,1
DA:1462,1
DA:1465,1
DA:1466,1
DA:1467,1
DA:1469,1
DA:1470,1
DA:1471,1
DA:1472,1
DA:1473,1
DA:1474,1
DA:1477,1
DA:1478,1
DA:1479,1
DA:1480,1
DA:1481,1
DA:1482,1
DA:1483,1
DA:1484,1
DA:1485,1
DA:1488,1
DA:1489,1
DA:1490,1
DA:1491,1
DA:1492,1
DA:1493,1
DA:1494,1
DA:1495,1
DA:1496,1
DA:1499,1
DA:1500,1
DA:1501,1
DA:1502,1
DA:1503,1
DA:1504,1
DA:1505,1
DA:1506,1
DA:1507,1
DA:1508,1
DA:1509,1
DA:1510,1
DA:1511,1
DA:1512,1
DA:1513,1
DA:1514,1
DA:1515,1
DA:1518,1
DA:1519,1
DA:1520,1
DA:1521,1
DA:1522,1
DA:1523,1
DA:1524,1
DA:1525,1
DA:1526,1
DA:1527,1
DA:1528,1
DA:1534,1
DA:1535,1
DA:1536,1
DA:1537,1
DA:1538,1
DA:1539,1
DA:1540,1
DA:1541,1
DA:1542,1
DA:1543,1
DA:1544,1
DA:1545,1
DA:1546,1
DA:1547,2
DA:1548,2
DA:1549,0
DA:1550,2
DA:1551,1
DA:1552,1
DA:1553,1
DA:1557,1
DA:1558,1
DA:1562,1
DA:1567,1
DA:1568,1
DA:1569,1
DA:1570,1
DA:1571,1
DA:1572,1
DA:1573,1
DA:1574,1
DA:1575,1
DA:1576,1
DA:1579,1
DA:1580,1
DA:1583,1
DA:1589,1
DA:1590,1
DA:1591,1
DA:1592,1
DA:1593,1
DA:1594,1
DA:1595,1
DA:1597,1
DA:1602,1
DA:1603,1
DA:1604,1
DA:1605,1
DA:1606,1
DA:1607,1
DA:1608,1
DA:1609,1
DA:1610,1
DA:1611,1
DA:1612,1
DA:1613,1
DA:1615,1
DA:1620,1
DA:1621,1
DA:1622,1
DA:1623,1
DA:1624,1
DA:1625,1
DA:1626,1
DA:1627,1
DA:1628,1
DA:1633,1
DA:1634,1
DA:1635,1
DA:1636,1
DA:1637,1
DA:1638,1
DA:1639,1
DA:1640,1
DA:1641,1
DA:1643,1
DA:1648,1
DA:1649,1
DA:1650,1
DA:1651,1
DA:1652,1
DA:1653,1
DA:1654,1
DA:1655,1
DA:1660,1
DA:1661,1
DA:1662,1
DA:1663,1
DA:1664,1
DA:1665,1
DA:1666,1
DA:1668,1
DA:1673,1
DA:1674,1
DA:1675,1
DA:1676,1
DA:1677,1
DA:1678,1
DA:1679,1
DA:1680,1
DA:1686,1
DA:1687,1
DA:1688,1
DA:1689,1
DA:1690,1
DA:1691,1
DA:1692,1
DA:1693,1
DA:1695,1
BRF:0
BRH:0
LF:986
LH:945
end_of_record